---
triple:          'x86_64-apple-darwin'
binary-path:     '/Users/felix/Downloads/PD/project/main1'
relocations:
  - { offsetInCU: 0x80FD, offset: 0x80FD, size: 0x8, addend: 0x0, symName: __ZNSt3__124__put_character_sequenceB7v160006IcNS_11char_traitsIcEEEERNS_13basic_ostreamIT_T0_EES7_PKS4_m, symObjAddr: 0x80B0, symBinAddr: 0x1000089B0, symSize: 0x1F0 }
  - { offsetInCU: 0xAE2D, offset: 0xAE2D, size: 0x8, addend: 0x0, symName: __ZNSt3__1eqB7v160006INS_9allocatorIcEEEEbRKNS_12basic_stringIcNS_11char_traitsIcEET_EES9_, symObjAddr: 0x690, symBinAddr: 0x100000F90, symSize: 0x110 }
  - { offsetInCU: 0xBBD8, offset: 0xBBD8, size: 0x8, addend: 0x0, symName: __ZNSt3__1lsB7v160006INS_11char_traitsIcEEEERNS_13basic_ostreamIcT_EES6_c, symObjAddr: 0xD00, symBinAddr: 0x100001600, symSize: 0x30 }
  - { offsetInCU: 0xBC1E, offset: 0xBC1E, size: 0x8, addend: 0x0, symName: __ZNSt3__1lsB7v160006INS_11char_traitsIcEEEERNS_13basic_ostreamIcT_EES6_PKc, symObjAddr: 0xD30, symBinAddr: 0x100001630, symSize: 0x40 }
  - { offsetInCU: 0xBC64, offset: 0xBC64, size: 0x8, addend: 0x0, symName: __ZNSt3__1lsB7v160006IcNS_11char_traitsIcEENS_9allocatorIcEEEERNS_13basic_ostreamIT_T0_EES9_RKNS_12basic_stringIS6_S7_T1_EE, symObjAddr: 0xD70, symBinAddr: 0x100001670, symSize: 0x50 }
  - { offsetInCU: 0xBCBC, offset: 0xBCBC, size: 0x8, addend: 0x0, symName: __ZNSt3__1eqB7v160006IcNS_11char_traitsIcEENS_9allocatorIcEEEEbRKNS_12basic_stringIT_T0_T1_EEPKS6_, symObjAddr: 0x1790, symBinAddr: 0x100002090, symSize: 0xB0 }
  - { offsetInCU: 0xBEC4, offset: 0xBEC4, size: 0x8, addend: 0x0, symName: __ZNSt3__134__libcpp_atomic_refcount_incrementB7v160006IlEET_RS1_, symObjAddr: 0x1B20, symBinAddr: 0x100002420, symSize: 0x30 }
  - { offsetInCU: 0xBEF9, offset: 0xBEF9, size: 0x8, addend: 0x0, symName: __ZNSt3__134__libcpp_atomic_refcount_decrementB7v160006IlEET_RS1_, symObjAddr: 0x1C20, symBinAddr: 0x100002520, symSize: 0x30 }
  - { offsetInCU: 0xBF2E, offset: 0xBF2E, size: 0x8, addend: 0x0, symName: __ZNSt3__118__debug_db_erase_cB7v160006INS_6vectorIdNS_9allocatorIdEEEEEEvPT_, symObjAddr: 0x1E10, symBinAddr: 0x100002710, symSize: 0x10 }
  - { offsetInCU: 0xBF5F, offset: 0xBF5F, size: 0x8, addend: 0x0, symName: __ZNSt3__112__to_addressB7v160006IdEEPT_S2_, symObjAddr: 0x1F20, symBinAddr: 0x100002820, symSize: 0x10 }
  - { offsetInCU: 0xBF94, offset: 0xBF94, size: 0x8, addend: 0x0, symName: __ZNSt3__130__libcpp_is_constant_evaluatedB7v160006Ev, symObjAddr: 0x2070, symBinAddr: 0x100002970, symSize: 0x10 }
  - { offsetInCU: 0xBFB1, offset: 0xBFB1, size: 0x8, addend: 0x0, symName: __ZNSt3__119__libcpp_deallocateB7v160006EPvmm, symObjAddr: 0x2080, symBinAddr: 0x100002980, symSize: 0x30 }
  - { offsetInCU: 0xBFF9, offset: 0xBFF9, size: 0x8, addend: 0x0, symName: __ZNSt3__127__do_deallocate_handle_sizeB7v160006IJEEEvPvmDpT_, symObjAddr: 0x20B0, symBinAddr: 0x1000029B0, symSize: 0x20 }
  - { offsetInCU: 0xC037, offset: 0xC037, size: 0x8, addend: 0x0, symName: __ZNSt3__124__libcpp_operator_deleteB7v160006IJPvEEEvDpT_, symObjAddr: 0x20D0, symBinAddr: 0x1000029D0, symSize: 0x20 }
  - { offsetInCU: 0xC06C, offset: 0xC06C, size: 0x8, addend: 0x0, symName: __ZNSt3__118__debug_db_erase_cB7v160006INS_6vectorIiNS_9allocatorIiEEEEEEvPT_, symObjAddr: 0x2330, symBinAddr: 0x100002C30, symSize: 0x10 }
  - { offsetInCU: 0xC09D, offset: 0xC09D, size: 0x8, addend: 0x0, symName: __ZNSt3__112__to_addressB7v160006IiEEPT_S2_, symObjAddr: 0x2420, symBinAddr: 0x100002D20, symSize: 0x10 }
  - { offsetInCU: 0xC0D2, offset: 0xC0D2, size: 0x8, addend: 0x0, symName: __ZNSt3__118__debug_db_erase_cB7v160006INS_6vectorINS_10shared_ptrI5SkillEENS_9allocatorIS4_EEEEEEvPT_, symObjAddr: 0x27B0, symBinAddr: 0x1000030B0, symSize: 0x10 }
  - { offsetInCU: 0xC103, offset: 0xC103, size: 0x8, addend: 0x0, symName: __ZNSt3__112__to_addressB7v160006INS_10shared_ptrI5SkillEEEEPT_S5_, symObjAddr: 0x28A0, symBinAddr: 0x1000031A0, symSize: 0x10 }
  - { offsetInCU: 0xC138, offset: 0xC138, size: 0x8, addend: 0x0, symName: __ZNSt3__119__debug_db_insert_cB7v160006INS_12basic_stringIcNS_11char_traitsIcEENS_9allocatorIcEEEEEEvPT_, symObjAddr: 0x2B50, symBinAddr: 0x100003450, symSize: 0x10 }
  - { offsetInCU: 0xC169, offset: 0xC169, size: 0x8, addend: 0x0, symName: __ZNSt3__117__libcpp_allocateB7v160006Emm, symObjAddr: 0x2FA0, symBinAddr: 0x1000038A0, symSize: 0x20 }
  - { offsetInCU: 0xC1A6, offset: 0xC1A6, size: 0x8, addend: 0x0, symName: __ZNSt3__121__libcpp_operator_newB7v160006IJmEEEPvDpT_, symObjAddr: 0x2FE0, symBinAddr: 0x1000038E0, symSize: 0x20 }
  - { offsetInCU: 0xC1DF, offset: 0xC1DF, size: 0x8, addend: 0x0, symName: __ZNSt3__119__debug_db_insert_cB7v160006INS_6vectorIdNS_9allocatorIdEEEEEEvPT_, symObjAddr: 0x30D0, symBinAddr: 0x1000039D0, symSize: 0x10 }
  - { offsetInCU: 0xC210, offset: 0xC210, size: 0x8, addend: 0x0, symName: __ZNSt3__119__debug_db_insert_cB7v160006INS_6vectorIiNS_9allocatorIiEEEEEEvPT_, symObjAddr: 0x3210, symBinAddr: 0x100003B10, symSize: 0x10 }
  - { offsetInCU: 0xC241, offset: 0xC241, size: 0x8, addend: 0x0, symName: __ZNSt3__119__debug_db_insert_cB7v160006INS_6vectorINS_10shared_ptrI5SkillEENS_9allocatorIS4_EEEEEEvPT_, symObjAddr: 0x3350, symBinAddr: 0x100003C50, symSize: 0x10 }
  - { offsetInCU: 0xC272, offset: 0xC272, size: 0x8, addend: 0x0, symName: __ZNSt3__112__to_addressB7v160006IKcEEPT_S3_, symObjAddr: 0x35E0, symBinAddr: 0x100003EE0, symSize: 0x10 }
  - { offsetInCU: 0xC2DA, offset: 0xC2DA, size: 0x8, addend: 0x0, symName: __ZNSt3__118__constexpr_memcmpB7v160006IcEEiPKT_S3_m, symObjAddr: 0x36A0, symBinAddr: 0x100003FA0, symSize: 0x30 }
  - { offsetInCU: 0xC32B, offset: 0xC32B, size: 0x8, addend: 0x0, symName: __ZNSt3__14swapB7v160006IP9AttributeEEvRT_S4_, symObjAddr: 0x3730, symBinAddr: 0x100004030, symSize: 0x40 }
  - { offsetInCU: 0xC37C, offset: 0xC37C, size: 0x8, addend: 0x0, symName: __ZNSt3__14swapB7v160006IPNS_19__shared_weak_countEEEvRT_S4_, symObjAddr: 0x3770, symBinAddr: 0x100004070, symSize: 0x40 }
  - { offsetInCU: 0xC3CD, offset: 0xC3CD, size: 0x8, addend: 0x0, symName: __ZNSt3__13maxB7v160006ImEERKT_S3_S3_, symObjAddr: 0x3D50, symBinAddr: 0x100004650, symSize: 0x30 }
  - { offsetInCU: 0xC410, offset: 0xC410, size: 0x8, addend: 0x0, symName: __ZNSt3__13minB7v160006ImEERKT_S3_S3_, symObjAddr: 0x3D80, symBinAddr: 0x100004680, symSize: 0x30 }
  - { offsetInCU: 0xC654, offset: 0xC654, size: 0x8, addend: 0x0, symName: __ZNSt3__13minB7v160006ImNS_6__lessImmEEEERKT_S5_S5_T0_, symObjAddr: 0x3E00, symBinAddr: 0x100004700, symSize: 0x50 }
  - { offsetInCU: 0xC6E9, offset: 0xC6E9, size: 0x8, addend: 0x0, symName: __ZNSt3__120__throw_length_errorB7v160006EPKc, symObjAddr: 0x3EE0, symBinAddr: 0x1000047E0, symSize: 0x70 }
  - { offsetInCU: 0xC711, offset: 0xC711, size: 0x8, addend: 0x0, symName: __ZNSt3__13maxB7v160006ImNS_6__lessImmEEEERKT_S5_S5_T0_, symObjAddr: 0x3FC0, symBinAddr: 0x1000048C0, symSize: 0x50 }
  - { offsetInCU: 0xC76B, offset: 0xC76B, size: 0x8, addend: 0x0, symName: __ZNSt3__119__allocate_at_leastB7v160006INS_9allocatorIdEEEENS_19__allocation_resultINS_16allocator_traitsIT_E7pointerEEERS5_m, symObjAddr: 0x4110, symBinAddr: 0x100004A10, symSize: 0x40 }
  - { offsetInCU: 0xC7AE, offset: 0xC7AE, size: 0x8, addend: 0x0, symName: __ZNSt3__142__uninitialized_allocator_move_if_noexceptB7v160006INS_9allocatorIdEENS_16reverse_iteratorIPdEES5_dvEET1_RT_T0_S9_S6_, symObjAddr: 0x42D0, symBinAddr: 0x100004BD0, symSize: 0x120 }
  - { offsetInCU: 0xC82A, offset: 0xC82A, size: 0x8, addend: 0x0, symName: __ZNSt3__14swapB7v160006IPdEEvRT_S3_, symObjAddr: 0x4440, symBinAddr: 0x100004D40, symSize: 0x40 }
  - { offsetInCU: 0xC87B, offset: 0xC87B, size: 0x8, addend: 0x0, symName: __ZNSt3__125__debug_db_invalidate_allB7v160006INS_6vectorIdNS_9allocatorIdEEEEEEvPT_, symObjAddr: 0x4530, symBinAddr: 0x100004E30, symSize: 0x10 }
  - { offsetInCU: 0xC8AC, offset: 0xC8AC, size: 0x8, addend: 0x0, symName: __ZNSt3__1neB7v160006IPdS1_EEbRKNS_16reverse_iteratorIT_EERKNS2_IT0_EE, symObjAddr: 0x4540, symBinAddr: 0x100004E40, symSize: 0x40 }
  - { offsetInCU: 0xC91D, offset: 0xC91D, size: 0x8, addend: 0x0, symName: __ZNSt3__114__construct_atB7v160006IdJdEPdEEPT_S3_DpOT0_, symObjAddr: 0x4580, symBinAddr: 0x100004E80, symSize: 0x30 }
  - { offsetInCU: 0xC98D, offset: 0xC98D, size: 0x8, addend: 0x0, symName: __ZNSt3__112__to_addressB7v160006INS_16reverse_iteratorIPdEEvEENS_5decayIDTclsr19__to_address_helperIT_EE6__callclsr3stdE7declvalIRKS5_EEEEE4typeES7_, symObjAddr: 0x45B0, symBinAddr: 0x100004EB0, symSize: 0x20 }
  - { offsetInCU: 0xC9C3, offset: 0xC9C3, size: 0x8, addend: 0x0, symName: __ZNSt3__14moveB7v160006INS_16reverse_iteratorIPdEES3_EET0_T_S5_S4_, symObjAddr: 0x4620, symBinAddr: 0x100004F20, symSize: 0x80 }
  - { offsetInCU: 0xCA46, offset: 0xCA46, size: 0x8, addend: 0x0, symName: __ZNSt3__16__moveB7v160006INS_17_ClassicAlgPolicyENS_16reverse_iteratorIPdEES4_S4_EENS_4pairIT0_T2_EES6_T1_S7_, symObjAddr: 0x4710, symBinAddr: 0x100005010, symSize: 0x90 }
  - { offsetInCU: 0xCAB2, offset: 0xCAB2, size: 0x8, addend: 0x0, symName: __ZNSt3__123__dispatch_copy_or_moveB7v160006INS_17_ClassicAlgPolicyENS_11__move_loopIS1_EENS_14__move_trivialENS_16reverse_iteratorIPdEES7_S7_EENS_4pairIT2_T4_EES9_T3_SA_, symObjAddr: 0x47A0, symBinAddr: 0x1000050A0, symSize: 0xB0 }
  - { offsetInCU: 0xCB30, offset: 0xCB30, size: 0x8, addend: 0x0, symName: __ZNSt3__121__unwrap_and_dispatchB7v160006INS_10__overloadINS_11__move_loopINS_17_ClassicAlgPolicyEEENS_14__move_trivialEEENS_16reverse_iteratorIPdEES9_S9_Li0EEENS_4pairIT0_T2_EESB_T1_SC_, symObjAddr: 0x4850, symBinAddr: 0x100005150, symSize: 0x210 }
  - { offsetInCU: 0xCBBF, offset: 0xCBBF, size: 0x8, addend: 0x0, symName: __ZNSt3__114__unwrap_rangeB7v160006INS_16reverse_iteratorIPdEES3_EENS_4pairIT0_S5_EET_S7_, symObjAddr: 0x4A60, symBinAddr: 0x100005360, symSize: 0x90 }
  - { offsetInCU: 0xCD52, offset: 0xCD52, size: 0x8, addend: 0x0, symName: __ZNSt3__113__unwrap_iterB7v160006INS_16reverse_iteratorIPdEENS_18__unwrap_iter_implIS3_Lb0EEELi0EEEDTclsrT0_8__unwrapclsr3stdE7declvalIT_EEEES7_, symObjAddr: 0x4B90, symBinAddr: 0x100005490, symSize: 0x40 }
  - { offsetInCU: 0xCD96, offset: 0xCD96, size: 0x8, addend: 0x0, symName: __ZNSt3__19make_pairB7v160006INS_16reverse_iteratorIPdEES3_EENS_4pairINS_18__unwrap_ref_decayIT_E4typeENS5_IT0_E4typeEEEOS6_OS9_, symObjAddr: 0x4BD0, symBinAddr: 0x1000054D0, symSize: 0x30 }
  - { offsetInCU: 0xCDE5, offset: 0xCDE5, size: 0x8, addend: 0x0, symName: __ZNSt3__114__rewrap_rangeB7v160006INS_16reverse_iteratorIPdEES3_EET_S4_T0_, symObjAddr: 0x4C00, symBinAddr: 0x100005500, symSize: 0x60 }
  - { offsetInCU: 0xCE31, offset: 0xCE31, size: 0x8, addend: 0x0, symName: __ZNSt3__113__rewrap_iterB7v160006INS_16reverse_iteratorIPdEES3_NS_18__unwrap_iter_implIS3_Lb0EEEEET_S6_T0_, symObjAddr: 0x4C60, symBinAddr: 0x100005560, symSize: 0x80 }
  - { offsetInCU: 0xCF6B, offset: 0xCF6B, size: 0x8, addend: 0x0, symName: __ZNSt3__122__make_exception_guardB7v160006INS_6vectorIiNS_9allocatorIiEEE16__destroy_vectorEEENS_28__exception_guard_exceptionsIT_EES7_, symObjAddr: 0x5080, symBinAddr: 0x100005980, symSize: 0x40 }
  - { offsetInCU: 0xCFA0, offset: 0xCFA0, size: 0x8, addend: 0x0, symName: __ZNSt3__119__allocate_at_leastB7v160006INS_9allocatorIiEEEENS_19__allocation_resultINS_16allocator_traitsIT_E7pointerEEERS5_m, symObjAddr: 0x5350, symBinAddr: 0x100005C50, symSize: 0x40 }
  - { offsetInCU: 0xCFE3, offset: 0xCFE3, size: 0x8, addend: 0x0, symName: __ZNSt3__115__debug_db_swapB7v160006INS_6vectorIiNS_9allocatorIiEEEEEEvPT_S6_, symObjAddr: 0x5820, symBinAddr: 0x100006120, symSize: 0x10 }
  - { offsetInCU: 0xD022, offset: 0xD022, size: 0x8, addend: 0x0, symName: __ZNSt3__119__allocate_at_leastB7v160006INS_9allocatorINS_10shared_ptrI5SkillEEEEEENS_19__allocation_resultINS_16allocator_traitsIT_E7pointerEEERS8_m, symObjAddr: 0x6010, symBinAddr: 0x100006910, symSize: 0x40 }
  - { offsetInCU: 0xD065, offset: 0xD065, size: 0x8, addend: 0x0, symName: __ZNSt3__142__uninitialized_allocator_move_if_noexceptB7v160006INS_9allocatorINS_10shared_ptrI5SkillEEEENS_16reverse_iteratorIPS4_EES8_S8_EET2_RT_T0_T1_S9_, symObjAddr: 0x61D0, symBinAddr: 0x100006AD0, symSize: 0x190 }
  - { offsetInCU: 0xD104, offset: 0xD104, size: 0x8, addend: 0x0, symName: __ZNSt3__14swapB7v160006IPNS_10shared_ptrI5SkillEEEEvRT_S6_, symObjAddr: 0x63B0, symBinAddr: 0x100006CB0, symSize: 0x40 }
  - { offsetInCU: 0xD155, offset: 0xD155, size: 0x8, addend: 0x0, symName: __ZNSt3__125__debug_db_invalidate_allB7v160006INS_6vectorINS_10shared_ptrI5SkillEENS_9allocatorIS4_EEEEEEvPT_, symObjAddr: 0x64A0, symBinAddr: 0x100006DA0, symSize: 0x10 }
  - { offsetInCU: 0xD186, offset: 0xD186, size: 0x8, addend: 0x0, symName: __ZNSt3__122__make_exception_guardB7v160006INS_29_AllocatorDestroyRangeReverseINS_9allocatorINS_10shared_ptrI5SkillEEEENS_16reverse_iteratorIPS5_EEEEEENS_28__exception_guard_exceptionsIT_EESC_, symObjAddr: 0x64B0, symBinAddr: 0x100006DB0, symSize: 0x60 }
  - { offsetInCU: 0xD1BB, offset: 0xD1BB, size: 0x8, addend: 0x0, symName: __ZNSt3__1neB7v160006IPNS_10shared_ptrI5SkillEES4_EEbRKNS_16reverse_iteratorIT_EERKNS5_IT0_EE, symObjAddr: 0x6550, symBinAddr: 0x100006E50, symSize: 0x40 }
  - { offsetInCU: 0xD207, offset: 0xD207, size: 0x8, addend: 0x0, symName: __ZNSt3__112__to_addressB7v160006INS_16reverse_iteratorIPNS_10shared_ptrI5SkillEEEEvEENS_5decayIDTclsr19__to_address_helperIT_EE6__callclsr3stdE7declvalIRKS8_EEEEE4typeESA_, symObjAddr: 0x6590, symBinAddr: 0x100006E90, symSize: 0x20 }
  - { offsetInCU: 0xD266, offset: 0xD266, size: 0x8, addend: 0x0, symName: __ZNSt3__119__allocator_destroyB7v160006INS_9allocatorINS_10shared_ptrI5SkillEEEENS_16reverse_iteratorINS6_IPS4_EEEES9_EEvRT_T0_T1_, symObjAddr: 0x6880, symBinAddr: 0x100007180, symSize: 0x70 }
  - { offsetInCU: 0xD2C9, offset: 0xD2C9, size: 0x8, addend: 0x0, symName: __ZNSt3__1neB7v160006INS_16reverse_iteratorIPNS_10shared_ptrI5SkillEEEES6_EEbRKNS1_IT_EERKNS1_IT0_EE, symObjAddr: 0x6920, symBinAddr: 0x100007220, symSize: 0x50 }
  - { offsetInCU: 0xD315, offset: 0xD315, size: 0x8, addend: 0x0, symName: __ZNSt3__112__to_addressB7v160006INS_16reverse_iteratorINS1_IPNS_10shared_ptrI5SkillEEEEEEvEENS_5decayIDTclsr19__to_address_helperIT_EE6__callclsr3stdE7declvalIRKS9_EEEEE4typeESB_, symObjAddr: 0x6970, symBinAddr: 0x100007270, symSize: 0x20 }
  - { offsetInCU: 0xD374, offset: 0xD374, size: 0x8, addend: 0x0, symName: __ZNSt3__142__uninitialized_allocator_move_if_noexceptB7v160006INS_9allocatorIiEENS_16reverse_iteratorIPiEES5_ivEET1_RT_T0_S9_S6_, symObjAddr: 0x72C0, symBinAddr: 0x100007BC0, symSize: 0x120 }
  - { offsetInCU: 0xD3F0, offset: 0xD3F0, size: 0x8, addend: 0x0, symName: __ZNSt3__14swapB7v160006IPiEEvRT_S3_, symObjAddr: 0x7430, symBinAddr: 0x100007D30, symSize: 0x40 }
  - { offsetInCU: 0xD441, offset: 0xD441, size: 0x8, addend: 0x0, symName: __ZNSt3__125__debug_db_invalidate_allB7v160006INS_6vectorIiNS_9allocatorIiEEEEEEvPT_, symObjAddr: 0x7470, symBinAddr: 0x100007D70, symSize: 0x10 }
  - { offsetInCU: 0xD472, offset: 0xD472, size: 0x8, addend: 0x0, symName: __ZNSt3__1neB7v160006IPiS1_EEbRKNS_16reverse_iteratorIT_EERKNS2_IT0_EE, symObjAddr: 0x7480, symBinAddr: 0x100007D80, symSize: 0x40 }
  - { offsetInCU: 0xD4E3, offset: 0xD4E3, size: 0x8, addend: 0x0, symName: __ZNSt3__114__construct_atB7v160006IiJiEPiEEPT_S3_DpOT0_, symObjAddr: 0x74C0, symBinAddr: 0x100007DC0, symSize: 0x30 }
  - { offsetInCU: 0xD553, offset: 0xD553, size: 0x8, addend: 0x0, symName: __ZNSt3__112__to_addressB7v160006INS_16reverse_iteratorIPiEEvEENS_5decayIDTclsr19__to_address_helperIT_EE6__callclsr3stdE7declvalIRKS5_EEEEE4typeES7_, symObjAddr: 0x74F0, symBinAddr: 0x100007DF0, symSize: 0x20 }
  - { offsetInCU: 0xD589, offset: 0xD589, size: 0x8, addend: 0x0, symName: __ZNSt3__14moveB7v160006INS_16reverse_iteratorIPiEES3_EET0_T_S5_S4_, symObjAddr: 0x7560, symBinAddr: 0x100007E60, symSize: 0x80 }
  - { offsetInCU: 0xD60C, offset: 0xD60C, size: 0x8, addend: 0x0, symName: __ZNSt3__16__moveB7v160006INS_17_ClassicAlgPolicyENS_16reverse_iteratorIPiEES4_S4_EENS_4pairIT0_T2_EES6_T1_S7_, symObjAddr: 0x7650, symBinAddr: 0x100007F50, symSize: 0x90 }
  - { offsetInCU: 0xD678, offset: 0xD678, size: 0x8, addend: 0x0, symName: __ZNSt3__123__dispatch_copy_or_moveB7v160006INS_17_ClassicAlgPolicyENS_11__move_loopIS1_EENS_14__move_trivialENS_16reverse_iteratorIPiEES7_S7_EENS_4pairIT2_T4_EES9_T3_SA_, symObjAddr: 0x76E0, symBinAddr: 0x100007FE0, symSize: 0xB0 }
  - { offsetInCU: 0xD6F6, offset: 0xD6F6, size: 0x8, addend: 0x0, symName: __ZNSt3__121__unwrap_and_dispatchB7v160006INS_10__overloadINS_11__move_loopINS_17_ClassicAlgPolicyEEENS_14__move_trivialEEENS_16reverse_iteratorIPiEES9_S9_Li0EEENS_4pairIT0_T2_EESB_T1_SC_, symObjAddr: 0x7790, symBinAddr: 0x100008090, symSize: 0x210 }
  - { offsetInCU: 0xD785, offset: 0xD785, size: 0x8, addend: 0x0, symName: __ZNSt3__114__unwrap_rangeB7v160006INS_16reverse_iteratorIPiEES3_EENS_4pairIT0_S5_EET_S7_, symObjAddr: 0x79A0, symBinAddr: 0x1000082A0, symSize: 0x90 }
  - { offsetInCU: 0xD87E, offset: 0xD87E, size: 0x8, addend: 0x0, symName: __ZNSt3__113__unwrap_iterB7v160006INS_16reverse_iteratorIPiEENS_18__unwrap_iter_implIS3_Lb0EEELi0EEEDTclsrT0_8__unwrapclsr3stdE7declvalIT_EEEES7_, symObjAddr: 0x7AD0, symBinAddr: 0x1000083D0, symSize: 0x40 }
  - { offsetInCU: 0xD8C2, offset: 0xD8C2, size: 0x8, addend: 0x0, symName: __ZNSt3__19make_pairB7v160006INS_16reverse_iteratorIPiEES3_EENS_4pairINS_18__unwrap_ref_decayIT_E4typeENS5_IT0_E4typeEEEOS6_OS9_, symObjAddr: 0x7B10, symBinAddr: 0x100008410, symSize: 0x30 }
  - { offsetInCU: 0xD911, offset: 0xD911, size: 0x8, addend: 0x0, symName: __ZNSt3__114__rewrap_rangeB7v160006INS_16reverse_iteratorIPiEES3_EET_S4_T0_, symObjAddr: 0x7B40, symBinAddr: 0x100008440, symSize: 0x60 }
  - { offsetInCU: 0xD95D, offset: 0xD95D, size: 0x8, addend: 0x0, symName: __ZNSt3__113__rewrap_iterB7v160006INS_16reverse_iteratorIPiEES3_NS_18__unwrap_iter_implIS3_Lb0EEEEET_S6_T0_, symObjAddr: 0x7BA0, symBinAddr: 0x1000084A0, symSize: 0x80 }
  - { offsetInCU: 0xDA1E, offset: 0xDA1E, size: 0x8, addend: 0x0, symName: __ZNSt3__116__pad_and_outputB7v160006IcNS_11char_traitsIcEEEENS_19ostreambuf_iteratorIT_T0_EES6_PKS4_S8_S8_RNS_8ios_baseES4_, symObjAddr: 0x82C0, symBinAddr: 0x100008BC0, symSize: 0x220 }
  - { offsetInCU: 0xDAEE, offset: 0xDAEE, size: 0x8, addend: 0x0, symName: __ZNSt3__19use_facetB7v160006INS_5ctypeIcEEEERKT_RKNS_6localeE, symObjAddr: 0x8850, symBinAddr: 0x100009150, symSize: 0x30 }
  - { offsetInCU: 0xDFBD, offset: 0xDFBD, size: 0x8, addend: 0x0, symName: __ZNSt3__118__constexpr_strlenB7v160006EPKc, symObjAddr: 0x8920, symBinAddr: 0x100009220, symSize: 0x20 }
  - { offsetInCU: 0xE00D, offset: 0xE00D, size: 0x8, addend: 0x0, symName: __ZNSt3__118generate_canonicalB7v160006IdLm53ENS_23mersenne_twister_engineIjLm32ELm624ELm397ELm31ELj2567483615ELm11ELj4294967295ELm7ELj2636928640ELm15ELj4022730752ELm18ELj1812433253EEEEET_RT1_, symObjAddr: 0x8BD0, symBinAddr: 0x1000094D0, symSize: 0x100 }
  - { offsetInCU: 0xE552, offset: 0xE552, size: 0x8, addend: 0x0, symName: __ZSt28__throw_bad_array_new_lengthB7v160006v, symObjAddr: 0x2F60, symBinAddr: 0x100003860, symSize: 0x40 }
  - { offsetInCU: 0xEF56, offset: 0xEF56, size: 0x8, addend: 0x0, symName: __ZNSt3__16vectorIdNS_9allocatorIdEEE26__swap_out_circular_bufferERNS_14__split_bufferIdRS2_EE, symObjAddr: 0x3B70, symBinAddr: 0x100004470, symSize: 0x130 }
  - { offsetInCU: 0xEFC6, offset: 0xEFC6, size: 0x8, addend: 0x0, symName: __ZNSt3__16vectorINS_10shared_ptrI5SkillEENS_9allocatorIS3_EEE26__swap_out_circular_bufferERNS_14__split_bufferIS3_RS5_EE, symObjAddr: 0x5CA0, symBinAddr: 0x1000065A0, symSize: 0x130 }
  - { offsetInCU: 0xF059, offset: 0xF059, size: 0x8, addend: 0x0, symName: __ZNSt3__16vectorIiNS_9allocatorIiEEE26__swap_out_circular_bufferERNS_14__split_bufferIiRS2_EE, symObjAddr: 0x6F70, symBinAddr: 0x100007870, symSize: 0x130 }
  - { offsetInCU: 0x1171E, offset: 0x1171E, size: 0x8, addend: 0x0, symName: __ZN7PokemonC2ENSt3__16vectorINS0_12basic_stringIcNS0_11char_traitsIcEENS0_9allocatorIcEEEENS5_IS7_EEEENS1_IiNS5_IiEEEESB_NS1_INS0_10shared_ptrI5SkillEENS5_ISE_EEEE, symObjAddr: 0x0, symBinAddr: 0x100000900, symSize: 0x5D0 }
  - { offsetInCU: 0x1182B, offset: 0x1182B, size: 0x8, addend: 0x0, symName: __ZNSt3__112basic_stringIcNS_11char_traitsIcEENS_9allocatorIcEEEC1B7v160006Ev, symObjAddr: 0x5D0, symBinAddr: 0x100000ED0, symSize: 0x20 }
  - { offsetInCU: 0x11855, offset: 0x11855, size: 0x8, addend: 0x0, symName: __ZNSt3__110shared_ptrI9AttributeEC1B7v160006Ev, symObjAddr: 0x5F0, symBinAddr: 0x100000EF0, symSize: 0x20 }
  - { offsetInCU: 0x1187F, offset: 0x1187F, size: 0x8, addend: 0x0, symName: __ZNSt3__16vectorIdNS_9allocatorIdEEEC1B7v160006Ev, symObjAddr: 0x610, symBinAddr: 0x100000F10, symSize: 0x20 }
  - { offsetInCU: 0x118A9, offset: 0x118A9, size: 0x8, addend: 0x0, symName: __ZNSt3__16vectorIiNS_9allocatorIiEEEC1B7v160006Ev, symObjAddr: 0x630, symBinAddr: 0x100000F30, symSize: 0x20 }
  - { offsetInCU: 0x118D3, offset: 0x118D3, size: 0x8, addend: 0x0, symName: __ZNSt3__16vectorINS_10shared_ptrI5SkillEENS_9allocatorIS3_EEEC1B7v160006Ev, symObjAddr: 0x650, symBinAddr: 0x100000F50, symSize: 0x20 }
  - { offsetInCU: 0x118FD, offset: 0x118FD, size: 0x8, addend: 0x0, symName: __ZNSt3__16vectorINS_12basic_stringIcNS_11char_traitsIcEENS_9allocatorIcEEEENS4_IS6_EEEixB7v160006Em, symObjAddr: 0x670, symBinAddr: 0x100000F70, symSize: 0x20 }
  - { offsetInCU: 0x11A1A, offset: 0x11A1A, size: 0x8, addend: 0x0, symName: __ZNSt3__16vectorINS_10shared_ptrI9AttributeEENS_9allocatorIS3_EEEixB7v160006Em, symObjAddr: 0x7A0, symBinAddr: 0x1000010A0, symSize: 0x20 }
  - { offsetInCU: 0x11A51, offset: 0x11A51, size: 0x8, addend: 0x0, symName: __ZNKSt3__110shared_ptrI9AttributeEptB7v160006Ev, symObjAddr: 0x7C0, symBinAddr: 0x1000010C0, symSize: 0x20 }
  - { offsetInCU: 0x11A77, offset: 0x11A77, size: 0x8, addend: 0x0, symName: __ZNSt3__110shared_ptrI9AttributeEaSB7v160006ERKS2_, symObjAddr: 0x7E0, symBinAddr: 0x1000010E0, symSize: 0x70 }
  - { offsetInCU: 0x11AAC, offset: 0x11AAC, size: 0x8, addend: 0x0, symName: __ZNSt3__16vectorIdNS_9allocatorIdEEE9push_backB7v160006EOd, symObjAddr: 0x850, symBinAddr: 0x100001150, symSize: 0x60 }
  - { offsetInCU: 0x11AE3, offset: 0x11AE3, size: 0x8, addend: 0x0, symName: __ZNSt3__16vectorIiNS_9allocatorIiEEEixB7v160006Em, symObjAddr: 0x8B0, symBinAddr: 0x1000011B0, symSize: 0x20 }
  - { offsetInCU: 0x11B1A, offset: 0x11B1A, size: 0x8, addend: 0x0, symName: __ZNSt3__16vectorIiNS_9allocatorIiEEEC1Em, symObjAddr: 0x8D0, symBinAddr: 0x1000011D0, symSize: 0x30 }
  - { offsetInCU: 0x11B55, offset: 0x11B55, size: 0x8, addend: 0x0, symName: __ZNSt3__16vectorIiNS_9allocatorIiEEEaSB7v160006EOS3_, symObjAddr: 0x900, symBinAddr: 0x100001200, symSize: 0x30 }
  - { offsetInCU: 0x11B8C, offset: 0x11B8C, size: 0x8, addend: 0x0, symName: __ZNSt3__16vectorIiNS_9allocatorIiEEED1B7v160006Ev, symObjAddr: 0x930, symBinAddr: 0x100001230, symSize: 0x20 }
  - { offsetInCU: 0x11BB6, offset: 0x11BB6, size: 0x8, addend: 0x0, symName: __ZNKSt3__16vectorIiNS_9allocatorIiEEE4sizeB7v160006Ev, symObjAddr: 0x960, symBinAddr: 0x100001260, symSize: 0x20 }
  - { offsetInCU: 0x11BDC, offset: 0x11BDC, size: 0x8, addend: 0x0, symName: __ZNKSt3__16vectorINS_10shared_ptrI5SkillEENS_9allocatorIS3_EEE4sizeB7v160006Ev, symObjAddr: 0x980, symBinAddr: 0x100001280, symSize: 0x20 }
  - { offsetInCU: 0x11C02, offset: 0x11C02, size: 0x8, addend: 0x0, symName: __ZNSt3__16vectorINS_10shared_ptrI5SkillEENS_9allocatorIS3_EEE9push_backB7v160006ERKS3_, symObjAddr: 0x9A0, symBinAddr: 0x1000012A0, symSize: 0x60 }
  - { offsetInCU: 0x11C39, offset: 0x11C39, size: 0x8, addend: 0x0, symName: __ZNSt3__16vectorINS_10shared_ptrI5SkillEENS_9allocatorIS3_EEEixB7v160006Em, symObjAddr: 0xA00, symBinAddr: 0x100001300, symSize: 0x20 }
  - { offsetInCU: 0x11C70, offset: 0x11C70, size: 0x8, addend: 0x0, symName: __ZNSt3__16vectorIiNS_9allocatorIiEEE9push_backB7v160006ERKi, symObjAddr: 0xA20, symBinAddr: 0x100001320, symSize: 0x60 }
  - { offsetInCU: 0x11CA7, offset: 0x11CA7, size: 0x8, addend: 0x0, symName: __ZNSt3__16vectorIiNS_9allocatorIiEEE9push_backB7v160006EOi, symObjAddr: 0xA80, symBinAddr: 0x100001380, symSize: 0x60 }
  - { offsetInCU: 0x11CDE, offset: 0x11CDE, size: 0x8, addend: 0x0, symName: __ZNSt3__16vectorINS_10shared_ptrI5SkillEENS_9allocatorIS3_EEED1B7v160006Ev, symObjAddr: 0xAE0, symBinAddr: 0x1000013E0, symSize: 0x20 }
  - { offsetInCU: 0x11D08, offset: 0x11D08, size: 0x8, addend: 0x0, symName: __ZNSt3__16vectorIdNS_9allocatorIdEEED1B7v160006Ev, symObjAddr: 0xB00, symBinAddr: 0x100001400, symSize: 0x20 }
  - { offsetInCU: 0x11D32, offset: 0x11D32, size: 0x8, addend: 0x0, symName: __ZNSt3__110shared_ptrI9AttributeED1B7v160006Ev, symObjAddr: 0xB20, symBinAddr: 0x100001420, symSize: 0x20 }
  - { offsetInCU: 0x11D5C, offset: 0x11D5C, size: 0x8, addend: 0x0, symName: __ZN7Pokemon11getUseLimitERNSt3__16vectorIiNS0_9allocatorIiEEEE, symObjAddr: 0xB40, symBinAddr: 0x100001440, symSize: 0xB0 }
  - { offsetInCU: 0x11DAE, offset: 0x11DAE, size: 0x8, addend: 0x0, symName: __ZNKSt3__110shared_ptrI5SkillEptB7v160006Ev, symObjAddr: 0xBF0, symBinAddr: 0x1000014F0, symSize: 0x20 }
  - { offsetInCU: 0x11DD4, offset: 0x11DD4, size: 0x8, addend: 0x0, symName: __ZN5Skill11getUselimitEv, symObjAddr: 0xC10, symBinAddr: 0x100001510, symSize: 0x30 }
  - { offsetInCU: 0x11DFA, offset: 0x11DFA, size: 0x8, addend: 0x0, symName: __ZN7Pokemon8printPosEv, symObjAddr: 0xC40, symBinAddr: 0x100001540, symSize: 0xC0 }
  - { offsetInCU: 0x11E22, offset: 0x11E22, size: 0x8, addend: 0x0, symName: __ZN7Pokemon14computeAbilityEi, symObjAddr: 0xDC0, symBinAddr: 0x1000016C0, symSize: 0x1E0 }
  - { offsetInCU: 0x11E58, offset: 0x11E58, size: 0x8, addend: 0x0, symName: __ZNSt3__16vectorIdNS_9allocatorIdEEEixB7v160006Em, symObjAddr: 0xFA0, symBinAddr: 0x1000018A0, symSize: 0x20 }
  - { offsetInCU: 0x11E8F, offset: 0x11E8F, size: 0x8, addend: 0x0, symName: __ZN7Pokemon8useSkillEiNSt3__110shared_ptrIS_EE, symObjAddr: 0xFC0, symBinAddr: 0x1000018C0, symSize: 0x7D0 }
  - { offsetInCU: 0x11F0F, offset: 0x11F0F, size: 0x8, addend: 0x0, symName: __ZN7Pokemon12getAttributeEv, symObjAddr: 0x1840, symBinAddr: 0x100002140, symSize: 0x30 }
  - { offsetInCU: 0x11F35, offset: 0x11F35, size: 0x8, addend: 0x0, symName: __ZNKSt3__110shared_ptrI7PokemonEptB7v160006Ev, symObjAddr: 0x1870, symBinAddr: 0x100002170, symSize: 0x20 }
  - { offsetInCU: 0x11F5B, offset: 0x11F5B, size: 0x8, addend: 0x0, symName: __ZN5Skill12getAttributeEv, symObjAddr: 0x1890, symBinAddr: 0x100002190, symSize: 0x30 }
  - { offsetInCU: 0x11F86, offset: 0x11F86, size: 0x8, addend: 0x0, symName: __ZNSt3__112basic_stringIcNS_11char_traitsIcEENS_9allocatorIcEEEC1B7v160006IDnEEPKc, symObjAddr: 0x18C0, symBinAddr: 0x1000021C0, symSize: 0x30 }
  - { offsetInCU: 0x11FC4, offset: 0x11FC4, size: 0x8, addend: 0x0, symName: __ZNSt3__123mersenne_twister_engineIjLm32ELm624ELm397ELm31ELj2567483615ELm11ELj4294967295ELm7ELj2636928640ELm15ELj4022730752ELm18ELj1812433253EEC1B7v160006Ej, symObjAddr: 0x18F0, symBinAddr: 0x1000021F0, symSize: 0x30 }
  - { offsetInCU: 0x1201F, offset: 0x1201F, size: 0x8, addend: 0x0, symName: __ZNSt3__125uniform_real_distributionIdEC1B7v160006Edd, symObjAddr: 0x1920, symBinAddr: 0x100002220, symSize: 0x30 }
  - { offsetInCU: 0x12065, offset: 0x12065, size: 0x8, addend: 0x0, symName: __ZN5Skill8getPowerEv, symObjAddr: 0x1950, symBinAddr: 0x100002250, symSize: 0x30 }
  - { offsetInCU: 0x12090, offset: 0x12090, size: 0x8, addend: 0x0, symName: __ZNSt3__125uniform_real_distributionIdEclB7v160006INS_23mersenne_twister_engineIjLm32ELm624ELm397ELm31ELj2567483615ELm11ELj4294967295ELm7ELj2636928640ELm15ELj4022730752ELm18ELj1812433253EEEEEdRT_, symObjAddr: 0x1980, symBinAddr: 0x100002280, symSize: 0x30 }
  - { offsetInCU: 0x120CD, offset: 0x120CD, size: 0x8, addend: 0x0, symName: __ZN7Pokemon16clearAfterBattleEv, symObjAddr: 0x19B0, symBinAddr: 0x1000022B0, symSize: 0x60 }
  - { offsetInCU: 0x12111, offset: 0x12111, size: 0x8, addend: 0x0, symName: __ZNSt3__16vectorIiNS_9allocatorIiEEE5clearB7v160006Ev, symObjAddr: 0x1A10, symBinAddr: 0x100002310, symSize: 0x50 }
  - { offsetInCU: 0x12146, offset: 0x12146, size: 0x8, addend: 0x0, symName: __ZNSt3__110shared_ptrI9AttributeEC1B7v160006ERKS2_, symObjAddr: 0x1A60, symBinAddr: 0x100002360, symSize: 0x30 }
  - { offsetInCU: 0x1217F, offset: 0x1217F, size: 0x8, addend: 0x0, symName: __ZNSt3__110shared_ptrI9AttributeEC2B7v160006ERKS2_, symObjAddr: 0x1A90, symBinAddr: 0x100002390, symSize: 0x50 }
  - { offsetInCU: 0x121B8, offset: 0x121B8, size: 0x8, addend: 0x0, symName: __ZNSt3__119__shared_weak_count12__add_sharedB7v160006Ev, symObjAddr: 0x1AE0, symBinAddr: 0x1000023E0, symSize: 0x20 }
  - { offsetInCU: 0x121DE, offset: 0x121DE, size: 0x8, addend: 0x0, symName: __ZNSt3__114__shared_count12__add_sharedB7v160006Ev, symObjAddr: 0x1B00, symBinAddr: 0x100002400, symSize: 0x20 }
  - { offsetInCU: 0x12204, offset: 0x12204, size: 0x8, addend: 0x0, symName: __ZNSt3__110shared_ptrI9AttributeED2B7v160006Ev, symObjAddr: 0x1B50, symBinAddr: 0x100002450, symSize: 0x40 }
  - { offsetInCU: 0x1222E, offset: 0x1222E, size: 0x8, addend: 0x0, symName: __ZNSt3__119__shared_weak_count16__release_sharedB7v160006Ev, symObjAddr: 0x1B90, symBinAddr: 0x100002490, symSize: 0x40 }
  - { offsetInCU: 0x12254, offset: 0x12254, size: 0x8, addend: 0x0, symName: __ZNSt3__114__shared_count16__release_sharedB7v160006Ev, symObjAddr: 0x1BD0, symBinAddr: 0x1000024D0, symSize: 0x50 }
  - { offsetInCU: 0x1227A, offset: 0x1227A, size: 0x8, addend: 0x0, symName: __ZNSt3__16vectorIdNS_9allocatorIdEEED2B7v160006Ev, symObjAddr: 0x1C50, symBinAddr: 0x100002550, symSize: 0x30 }
  - { offsetInCU: 0x122A4, offset: 0x122A4, size: 0x8, addend: 0x0, symName: __ZNSt3__16vectorIdNS_9allocatorIdEEE16__destroy_vectorC1ERS3_, symObjAddr: 0x1C80, symBinAddr: 0x100002580, symSize: 0x30 }
  - { offsetInCU: 0x122DD, offset: 0x122DD, size: 0x8, addend: 0x0, symName: __ZNSt3__16vectorIdNS_9allocatorIdEEE16__destroy_vectorclB7v160006Ev, symObjAddr: 0x1CB0, symBinAddr: 0x1000025B0, symSize: 0x90 }
  - { offsetInCU: 0x12303, offset: 0x12303, size: 0x8, addend: 0x0, symName: __ZNSt3__16vectorIdNS_9allocatorIdEEE16__destroy_vectorC2ERS3_, symObjAddr: 0x1D40, symBinAddr: 0x100002640, symSize: 0x20 }
  - { offsetInCU: 0x1233C, offset: 0x1233C, size: 0x8, addend: 0x0, symName: __ZNKSt3__16vectorIdNS_9allocatorIdEEE17__annotate_deleteB7v160006Ev, symObjAddr: 0x1D60, symBinAddr: 0x100002660, symSize: 0xB0 }
  - { offsetInCU: 0x12362, offset: 0x12362, size: 0x8, addend: 0x0, symName: __ZNSt3__16vectorIdNS_9allocatorIdEEE7__clearB7v160006Ev, symObjAddr: 0x1E20, symBinAddr: 0x100002720, symSize: 0x20 }
  - { offsetInCU: 0x12388, offset: 0x12388, size: 0x8, addend: 0x0, symName: __ZNSt3__116allocator_traitsINS_9allocatorIdEEE10deallocateB7v160006ERS2_Pdm, symObjAddr: 0x1E40, symBinAddr: 0x100002740, symSize: 0x30 }
  - { offsetInCU: 0x123CA, offset: 0x123CA, size: 0x8, addend: 0x0, symName: __ZNSt3__16vectorIdNS_9allocatorIdEEE7__allocB7v160006Ev, symObjAddr: 0x1E70, symBinAddr: 0x100002770, symSize: 0x20 }
  - { offsetInCU: 0x123F0, offset: 0x123F0, size: 0x8, addend: 0x0, symName: __ZNKSt3__16vectorIdNS_9allocatorIdEEE8capacityB7v160006Ev, symObjAddr: 0x1E90, symBinAddr: 0x100002790, symSize: 0x30 }
  - { offsetInCU: 0x12416, offset: 0x12416, size: 0x8, addend: 0x0, symName: __ZNKSt3__16vectorIdNS_9allocatorIdEEE31__annotate_contiguous_containerB7v160006EPKvS5_S5_S5_, symObjAddr: 0x1EC0, symBinAddr: 0x1000027C0, symSize: 0x20 }
  - { offsetInCU: 0x12468, offset: 0x12468, size: 0x8, addend: 0x0, symName: __ZNKSt3__16vectorIdNS_9allocatorIdEEE4dataB7v160006Ev, symObjAddr: 0x1EE0, symBinAddr: 0x1000027E0, symSize: 0x20 }
  - { offsetInCU: 0x1248E, offset: 0x1248E, size: 0x8, addend: 0x0, symName: __ZNKSt3__16vectorIdNS_9allocatorIdEEE4sizeB7v160006Ev, symObjAddr: 0x1F00, symBinAddr: 0x100002800, symSize: 0x20 }
  - { offsetInCU: 0x124B4, offset: 0x124B4, size: 0x8, addend: 0x0, symName: __ZNSt3__16vectorIdNS_9allocatorIdEEE22__base_destruct_at_endB7v160006EPd, symObjAddr: 0x1F30, symBinAddr: 0x100002830, symSize: 0x90 }
  - { offsetInCU: 0x124F8, offset: 0x124F8, size: 0x8, addend: 0x0, symName: __ZNSt3__116allocator_traitsINS_9allocatorIdEEE7destroyB7v160006IdvEEvRS2_PT_, symObjAddr: 0x1FC0, symBinAddr: 0x1000028C0, symSize: 0x30 }
  - { offsetInCU: 0x12535, offset: 0x12535, size: 0x8, addend: 0x0, symName: __ZNSt3__19allocatorIdE7destroyB7v160006EPd, symObjAddr: 0x1FF0, symBinAddr: 0x1000028F0, symSize: 0x10 }
  - { offsetInCU: 0x12569, offset: 0x12569, size: 0x8, addend: 0x0, symName: __ZNSt3__19allocatorIdE10deallocateB7v160006EPdm, symObjAddr: 0x2000, symBinAddr: 0x100002900, symSize: 0x70 }
  - { offsetInCU: 0x125AB, offset: 0x125AB, size: 0x8, addend: 0x0, symName: __ZNSt3__117__compressed_pairIPdNS_9allocatorIdEEE6secondB7v160006Ev, symObjAddr: 0x20F0, symBinAddr: 0x1000029F0, symSize: 0x20 }
  - { offsetInCU: 0x125D1, offset: 0x125D1, size: 0x8, addend: 0x0, symName: __ZNSt3__122__compressed_pair_elemINS_9allocatorIdEELi1ELb1EE5__getB7v160006Ev, symObjAddr: 0x2110, symBinAddr: 0x100002A10, symSize: 0x10 }
  - { offsetInCU: 0x125F7, offset: 0x125F7, size: 0x8, addend: 0x0, symName: __ZNKSt3__16vectorIdNS_9allocatorIdEEE9__end_capB7v160006Ev, symObjAddr: 0x2120, symBinAddr: 0x100002A20, symSize: 0x20 }
  - { offsetInCU: 0x1261D, offset: 0x1261D, size: 0x8, addend: 0x0, symName: __ZNKSt3__117__compressed_pairIPdNS_9allocatorIdEEE5firstB7v160006Ev, symObjAddr: 0x2140, symBinAddr: 0x100002A40, symSize: 0x20 }
  - { offsetInCU: 0x12643, offset: 0x12643, size: 0x8, addend: 0x0, symName: __ZNKSt3__122__compressed_pair_elemIPdLi0ELb0EE5__getB7v160006Ev, symObjAddr: 0x2160, symBinAddr: 0x100002A60, symSize: 0x10 }
  - { offsetInCU: 0x12669, offset: 0x12669, size: 0x8, addend: 0x0, symName: __ZNSt3__16vectorIiNS_9allocatorIiEEED2B7v160006Ev, symObjAddr: 0x2170, symBinAddr: 0x100002A70, symSize: 0x30 }
  - { offsetInCU: 0x12693, offset: 0x12693, size: 0x8, addend: 0x0, symName: __ZNSt3__16vectorIiNS_9allocatorIiEEE16__destroy_vectorC1ERS3_, symObjAddr: 0x21A0, symBinAddr: 0x100002AA0, symSize: 0x30 }
  - { offsetInCU: 0x126CC, offset: 0x126CC, size: 0x8, addend: 0x0, symName: __ZNSt3__16vectorIiNS_9allocatorIiEEE16__destroy_vectorclB7v160006Ev, symObjAddr: 0x21D0, symBinAddr: 0x100002AD0, symSize: 0x90 }
  - { offsetInCU: 0x126F2, offset: 0x126F2, size: 0x8, addend: 0x0, symName: __ZNSt3__16vectorIiNS_9allocatorIiEEE16__destroy_vectorC2ERS3_, symObjAddr: 0x2260, symBinAddr: 0x100002B60, symSize: 0x20 }
  - { offsetInCU: 0x1272B, offset: 0x1272B, size: 0x8, addend: 0x0, symName: __ZNKSt3__16vectorIiNS_9allocatorIiEEE17__annotate_deleteB7v160006Ev, symObjAddr: 0x2280, symBinAddr: 0x100002B80, symSize: 0xB0 }
  - { offsetInCU: 0x12751, offset: 0x12751, size: 0x8, addend: 0x0, symName: __ZNSt3__16vectorIiNS_9allocatorIiEEE7__clearB7v160006Ev, symObjAddr: 0x2340, symBinAddr: 0x100002C40, symSize: 0x20 }
  - { offsetInCU: 0x12777, offset: 0x12777, size: 0x8, addend: 0x0, symName: __ZNSt3__116allocator_traitsINS_9allocatorIiEEE10deallocateB7v160006ERS2_Pim, symObjAddr: 0x2360, symBinAddr: 0x100002C60, symSize: 0x30 }
  - { offsetInCU: 0x127B9, offset: 0x127B9, size: 0x8, addend: 0x0, symName: __ZNSt3__16vectorIiNS_9allocatorIiEEE7__allocB7v160006Ev, symObjAddr: 0x2390, symBinAddr: 0x100002C90, symSize: 0x20 }
  - { offsetInCU: 0x127DF, offset: 0x127DF, size: 0x8, addend: 0x0, symName: __ZNKSt3__16vectorIiNS_9allocatorIiEEE8capacityB7v160006Ev, symObjAddr: 0x23B0, symBinAddr: 0x100002CB0, symSize: 0x30 }
  - { offsetInCU: 0x12805, offset: 0x12805, size: 0x8, addend: 0x0, symName: __ZNKSt3__16vectorIiNS_9allocatorIiEEE31__annotate_contiguous_containerB7v160006EPKvS5_S5_S5_, symObjAddr: 0x23E0, symBinAddr: 0x100002CE0, symSize: 0x20 }
  - { offsetInCU: 0x12857, offset: 0x12857, size: 0x8, addend: 0x0, symName: __ZNKSt3__16vectorIiNS_9allocatorIiEEE4dataB7v160006Ev, symObjAddr: 0x2400, symBinAddr: 0x100002D00, symSize: 0x20 }
  - { offsetInCU: 0x1287D, offset: 0x1287D, size: 0x8, addend: 0x0, symName: __ZNSt3__16vectorIiNS_9allocatorIiEEE22__base_destruct_at_endB7v160006EPi, symObjAddr: 0x2430, symBinAddr: 0x100002D30, symSize: 0x90 }
  - { offsetInCU: 0x128C1, offset: 0x128C1, size: 0x8, addend: 0x0, symName: __ZNSt3__116allocator_traitsINS_9allocatorIiEEE7destroyB7v160006IivEEvRS2_PT_, symObjAddr: 0x24C0, symBinAddr: 0x100002DC0, symSize: 0x30 }
  - { offsetInCU: 0x128FE, offset: 0x128FE, size: 0x8, addend: 0x0, symName: __ZNSt3__19allocatorIiE7destroyB7v160006EPi, symObjAddr: 0x24F0, symBinAddr: 0x100002DF0, symSize: 0x10 }
  - { offsetInCU: 0x12932, offset: 0x12932, size: 0x8, addend: 0x0, symName: __ZNSt3__19allocatorIiE10deallocateB7v160006EPim, symObjAddr: 0x2500, symBinAddr: 0x100002E00, symSize: 0x70 }
  - { offsetInCU: 0x12974, offset: 0x12974, size: 0x8, addend: 0x0, symName: __ZNSt3__117__compressed_pairIPiNS_9allocatorIiEEE6secondB7v160006Ev, symObjAddr: 0x2570, symBinAddr: 0x100002E70, symSize: 0x20 }
  - { offsetInCU: 0x1299A, offset: 0x1299A, size: 0x8, addend: 0x0, symName: __ZNSt3__122__compressed_pair_elemINS_9allocatorIiEELi1ELb1EE5__getB7v160006Ev, symObjAddr: 0x2590, symBinAddr: 0x100002E90, symSize: 0x10 }
  - { offsetInCU: 0x129C0, offset: 0x129C0, size: 0x8, addend: 0x0, symName: __ZNKSt3__16vectorIiNS_9allocatorIiEEE9__end_capB7v160006Ev, symObjAddr: 0x25A0, symBinAddr: 0x100002EA0, symSize: 0x20 }
  - { offsetInCU: 0x129E6, offset: 0x129E6, size: 0x8, addend: 0x0, symName: __ZNKSt3__117__compressed_pairIPiNS_9allocatorIiEEE5firstB7v160006Ev, symObjAddr: 0x25C0, symBinAddr: 0x100002EC0, symSize: 0x20 }
  - { offsetInCU: 0x12A0C, offset: 0x12A0C, size: 0x8, addend: 0x0, symName: __ZNKSt3__122__compressed_pair_elemIPiLi0ELb0EE5__getB7v160006Ev, symObjAddr: 0x25E0, symBinAddr: 0x100002EE0, symSize: 0x10 }
  - { offsetInCU: 0x12A32, offset: 0x12A32, size: 0x8, addend: 0x0, symName: __ZNSt3__16vectorINS_10shared_ptrI5SkillEENS_9allocatorIS3_EEED2B7v160006Ev, symObjAddr: 0x25F0, symBinAddr: 0x100002EF0, symSize: 0x30 }
  - { offsetInCU: 0x12A5C, offset: 0x12A5C, size: 0x8, addend: 0x0, symName: __ZNSt3__16vectorINS_10shared_ptrI5SkillEENS_9allocatorIS3_EEE16__destroy_vectorC1ERS6_, symObjAddr: 0x2620, symBinAddr: 0x100002F20, symSize: 0x30 }
  - { offsetInCU: 0x12A95, offset: 0x12A95, size: 0x8, addend: 0x0, symName: __ZNSt3__16vectorINS_10shared_ptrI5SkillEENS_9allocatorIS3_EEE16__destroy_vectorclB7v160006Ev, symObjAddr: 0x2650, symBinAddr: 0x100002F50, symSize: 0x90 }
  - { offsetInCU: 0x12ABB, offset: 0x12ABB, size: 0x8, addend: 0x0, symName: __ZNSt3__16vectorINS_10shared_ptrI5SkillEENS_9allocatorIS3_EEE16__destroy_vectorC2ERS6_, symObjAddr: 0x26E0, symBinAddr: 0x100002FE0, symSize: 0x20 }
  - { offsetInCU: 0x12AF4, offset: 0x12AF4, size: 0x8, addend: 0x0, symName: __ZNKSt3__16vectorINS_10shared_ptrI5SkillEENS_9allocatorIS3_EEE17__annotate_deleteB7v160006Ev, symObjAddr: 0x2700, symBinAddr: 0x100003000, symSize: 0xB0 }
  - { offsetInCU: 0x12B1A, offset: 0x12B1A, size: 0x8, addend: 0x0, symName: __ZNSt3__16vectorINS_10shared_ptrI5SkillEENS_9allocatorIS3_EEE7__clearB7v160006Ev, symObjAddr: 0x27C0, symBinAddr: 0x1000030C0, symSize: 0x20 }
  - { offsetInCU: 0x12B40, offset: 0x12B40, size: 0x8, addend: 0x0, symName: __ZNSt3__116allocator_traitsINS_9allocatorINS_10shared_ptrI5SkillEEEEE10deallocateB7v160006ERS5_PS4_m, symObjAddr: 0x27E0, symBinAddr: 0x1000030E0, symSize: 0x30 }
  - { offsetInCU: 0x12B82, offset: 0x12B82, size: 0x8, addend: 0x0, symName: __ZNSt3__16vectorINS_10shared_ptrI5SkillEENS_9allocatorIS3_EEE7__allocB7v160006Ev, symObjAddr: 0x2810, symBinAddr: 0x100003110, symSize: 0x20 }
  - { offsetInCU: 0x12BA8, offset: 0x12BA8, size: 0x8, addend: 0x0, symName: __ZNKSt3__16vectorINS_10shared_ptrI5SkillEENS_9allocatorIS3_EEE8capacityB7v160006Ev, symObjAddr: 0x2830, symBinAddr: 0x100003130, symSize: 0x30 }
  - { offsetInCU: 0x12BCE, offset: 0x12BCE, size: 0x8, addend: 0x0, symName: __ZNKSt3__16vectorINS_10shared_ptrI5SkillEENS_9allocatorIS3_EEE31__annotate_contiguous_containerB7v160006EPKvS8_S8_S8_, symObjAddr: 0x2860, symBinAddr: 0x100003160, symSize: 0x20 }
  - { offsetInCU: 0x12C20, offset: 0x12C20, size: 0x8, addend: 0x0, symName: __ZNKSt3__16vectorINS_10shared_ptrI5SkillEENS_9allocatorIS3_EEE4dataB7v160006Ev, symObjAddr: 0x2880, symBinAddr: 0x100003180, symSize: 0x20 }
  - { offsetInCU: 0x12C46, offset: 0x12C46, size: 0x8, addend: 0x0, symName: __ZNSt3__16vectorINS_10shared_ptrI5SkillEENS_9allocatorIS3_EEE22__base_destruct_at_endB7v160006EPS3_, symObjAddr: 0x28B0, symBinAddr: 0x1000031B0, symSize: 0x90 }
  - { offsetInCU: 0x12C8A, offset: 0x12C8A, size: 0x8, addend: 0x0, symName: __ZNSt3__116allocator_traitsINS_9allocatorINS_10shared_ptrI5SkillEEEEE7destroyB7v160006IS4_vEEvRS5_PT_, symObjAddr: 0x2940, symBinAddr: 0x100003240, symSize: 0x30 }
  - { offsetInCU: 0x12CC7, offset: 0x12CC7, size: 0x8, addend: 0x0, symName: __ZNSt3__19allocatorINS_10shared_ptrI5SkillEEE7destroyB7v160006EPS3_, symObjAddr: 0x2970, symBinAddr: 0x100003270, symSize: 0x20 }
  - { offsetInCU: 0x12CFB, offset: 0x12CFB, size: 0x8, addend: 0x0, symName: __ZNSt3__110shared_ptrI5SkillED1B7v160006Ev, symObjAddr: 0x2990, symBinAddr: 0x100003290, symSize: 0x20 }
  - { offsetInCU: 0x12D25, offset: 0x12D25, size: 0x8, addend: 0x0, symName: __ZNSt3__110shared_ptrI5SkillED2B7v160006Ev, symObjAddr: 0x29B0, symBinAddr: 0x1000032B0, symSize: 0x40 }
  - { offsetInCU: 0x12D4F, offset: 0x12D4F, size: 0x8, addend: 0x0, symName: __ZNSt3__19allocatorINS_10shared_ptrI5SkillEEE10deallocateB7v160006EPS3_m, symObjAddr: 0x29F0, symBinAddr: 0x1000032F0, symSize: 0x70 }
  - { offsetInCU: 0x12D91, offset: 0x12D91, size: 0x8, addend: 0x0, symName: __ZNSt3__117__compressed_pairIPNS_10shared_ptrI5SkillEENS_9allocatorIS3_EEE6secondB7v160006Ev, symObjAddr: 0x2A60, symBinAddr: 0x100003360, symSize: 0x20 }
  - { offsetInCU: 0x12DB7, offset: 0x12DB7, size: 0x8, addend: 0x0, symName: __ZNSt3__122__compressed_pair_elemINS_9allocatorINS_10shared_ptrI5SkillEEEELi1ELb1EE5__getB7v160006Ev, symObjAddr: 0x2A80, symBinAddr: 0x100003380, symSize: 0x10 }
  - { offsetInCU: 0x12DDD, offset: 0x12DDD, size: 0x8, addend: 0x0, symName: __ZNKSt3__16vectorINS_10shared_ptrI5SkillEENS_9allocatorIS3_EEE9__end_capB7v160006Ev, symObjAddr: 0x2A90, symBinAddr: 0x100003390, symSize: 0x20 }
  - { offsetInCU: 0x12E03, offset: 0x12E03, size: 0x8, addend: 0x0, symName: __ZNKSt3__117__compressed_pairIPNS_10shared_ptrI5SkillEENS_9allocatorIS3_EEE5firstB7v160006Ev, symObjAddr: 0x2AB0, symBinAddr: 0x1000033B0, symSize: 0x20 }
  - { offsetInCU: 0x12E29, offset: 0x12E29, size: 0x8, addend: 0x0, symName: __ZNKSt3__122__compressed_pair_elemIPNS_10shared_ptrI5SkillEELi0ELb0EE5__getB7v160006Ev, symObjAddr: 0x2AD0, symBinAddr: 0x1000033D0, symSize: 0x10 }
  - { offsetInCU: 0x12E4F, offset: 0x12E4F, size: 0x8, addend: 0x0, symName: __ZNSt3__112basic_stringIcNS_11char_traitsIcEENS_9allocatorIcEEEC2B7v160006Ev, symObjAddr: 0x2AE0, symBinAddr: 0x1000033E0, symSize: 0x40 }
  - { offsetInCU: 0x12E7E, offset: 0x12E7E, size: 0x8, addend: 0x0, symName: __ZNSt3__117__compressed_pairINS_12basic_stringIcNS_11char_traitsIcEENS_9allocatorIcEEE5__repES5_EC1B7v160006INS_18__default_init_tagESA_EEOT_OT0_, symObjAddr: 0x2B20, symBinAddr: 0x100003420, symSize: 0x30 }
  - { offsetInCU: 0x12ED6, offset: 0x12ED6, size: 0x8, addend: 0x0, symName: __ZNSt3__112basic_stringIcNS_11char_traitsIcEENS_9allocatorIcEEE14__default_initB7v160006Ev, symObjAddr: 0x2B60, symBinAddr: 0x100003460, symSize: 0xC0 }
  - { offsetInCU: 0x12F28, offset: 0x12F28, size: 0x8, addend: 0x0, symName: __ZNSt3__117__compressed_pairINS_12basic_stringIcNS_11char_traitsIcEENS_9allocatorIcEEE5__repES5_EC2B7v160006INS_18__default_init_tagESA_EEOT_OT0_, symObjAddr: 0x2C20, symBinAddr: 0x100003520, symSize: 0x30 }
  - { offsetInCU: 0x12F80, offset: 0x12F80, size: 0x8, addend: 0x0, symName: __ZNSt3__122__compressed_pair_elemINS_12basic_stringIcNS_11char_traitsIcEENS_9allocatorIcEEE5__repELi0ELb0EEC2B7v160006ENS_18__default_init_tagE, symObjAddr: 0x2C50, symBinAddr: 0x100003550, symSize: 0x10 }
  - { offsetInCU: 0x12FB5, offset: 0x12FB5, size: 0x8, addend: 0x0, symName: __ZNSt3__122__compressed_pair_elemINS_9allocatorIcEELi1ELb1EEC2B7v160006ENS_18__default_init_tagE, symObjAddr: 0x2C60, symBinAddr: 0x100003560, symSize: 0x20 }
  - { offsetInCU: 0x12FEA, offset: 0x12FEA, size: 0x8, addend: 0x0, symName: __ZNSt3__19allocatorIcEC2B7v160006Ev, symObjAddr: 0x2C80, symBinAddr: 0x100003580, symSize: 0x20 }
  - { offsetInCU: 0x13014, offset: 0x13014, size: 0x8, addend: 0x0, symName: __ZNSt3__116__non_trivial_ifILb1ENS_9allocatorIcEEEC2B7v160006Ev, symObjAddr: 0x2CA0, symBinAddr: 0x1000035A0, symSize: 0x10 }
  - { offsetInCU: 0x1303E, offset: 0x1303E, size: 0x8, addend: 0x0, symName: __ZNSt3__117__compressed_pairINS_12basic_stringIcNS_11char_traitsIcEENS_9allocatorIcEEE5__repES5_E5firstB7v160006Ev, symObjAddr: 0x2CB0, symBinAddr: 0x1000035B0, symSize: 0x20 }
  - { offsetInCU: 0x13064, offset: 0x13064, size: 0x8, addend: 0x0, symName: __ZNSt3__112basic_stringIcNS_11char_traitsIcEENS_9allocatorIcEEE11__recommendB7v160006Em, symObjAddr: 0x2CD0, symBinAddr: 0x1000035D0, symSize: 0x90 }
  - { offsetInCU: 0x13097, offset: 0x13097, size: 0x8, addend: 0x0, symName: __ZNSt3__116allocator_traitsINS_9allocatorIcEEE8allocateB7v160006ERS2_m, symObjAddr: 0x2D60, symBinAddr: 0x100003660, symSize: 0x30 }
  - { offsetInCU: 0x130CA, offset: 0x130CA, size: 0x8, addend: 0x0, symName: __ZNSt3__112basic_stringIcNS_11char_traitsIcEENS_9allocatorIcEEE7__allocB7v160006Ev, symObjAddr: 0x2D90, symBinAddr: 0x100003690, symSize: 0x20 }
  - { offsetInCU: 0x130F0, offset: 0x130F0, size: 0x8, addend: 0x0, symName: __ZNSt3__112basic_stringIcNS_11char_traitsIcEENS_9allocatorIcEEE16__begin_lifetimeB7v160006EPcm, symObjAddr: 0x2DB0, symBinAddr: 0x1000036B0, symSize: 0x10 }
  - { offsetInCU: 0x13123, offset: 0x13123, size: 0x8, addend: 0x0, symName: __ZNSt3__112basic_stringIcNS_11char_traitsIcEENS_9allocatorIcEEE18__set_long_pointerB7v160006EPc, symObjAddr: 0x2DC0, symBinAddr: 0x1000036C0, symSize: 0x30 }
  - { offsetInCU: 0x13158, offset: 0x13158, size: 0x8, addend: 0x0, symName: __ZNSt3__112basic_stringIcNS_11char_traitsIcEENS_9allocatorIcEEE14__set_long_capB7v160006Em, symObjAddr: 0x2DF0, symBinAddr: 0x1000036F0, symSize: 0x70 }
  - { offsetInCU: 0x1318D, offset: 0x1318D, size: 0x8, addend: 0x0, symName: __ZNSt3__112basic_stringIcNS_11char_traitsIcEENS_9allocatorIcEEE15__set_long_sizeB7v160006Em, symObjAddr: 0x2E60, symBinAddr: 0x100003760, symSize: 0x30 }
  - { offsetInCU: 0x131C2, offset: 0x131C2, size: 0x8, addend: 0x0, symName: __ZNSt3__122__compressed_pair_elemINS_12basic_stringIcNS_11char_traitsIcEENS_9allocatorIcEEE5__repELi0ELb0EE5__getB7v160006Ev, symObjAddr: 0x2E90, symBinAddr: 0x100003790, symSize: 0x10 }
  - { offsetInCU: 0x131E8, offset: 0x131E8, size: 0x8, addend: 0x0, symName: __ZNSt3__112basic_stringIcNS_11char_traitsIcEENS_9allocatorIcEEE10__align_itB7v160006ILm16EEEmm, symObjAddr: 0x2EA0, symBinAddr: 0x1000037A0, symSize: 0x20 }
  - { offsetInCU: 0x13216, offset: 0x13216, size: 0x8, addend: 0x0, symName: __ZNSt3__19allocatorIcE8allocateB7v160006Em, symObjAddr: 0x2EC0, symBinAddr: 0x1000037C0, symSize: 0x80 }
  - { offsetInCU: 0x13254, offset: 0x13254, size: 0x8, addend: 0x0, symName: __ZNSt3__116allocator_traitsINS_9allocatorIcEEE8max_sizeB7v160006IS2_vEEmRKS2_, symObjAddr: 0x2F40, symBinAddr: 0x100003840, symSize: 0x20 }
  - { offsetInCU: 0x13282, offset: 0x13282, size: 0x8, addend: 0x0, symName: __ZNKSt3__19allocatorIcE8max_sizeB7v160006Ev, symObjAddr: 0x2FC0, symBinAddr: 0x1000038C0, symSize: 0x20 }
  - { offsetInCU: 0x132A8, offset: 0x132A8, size: 0x8, addend: 0x0, symName: __ZNSt3__117__compressed_pairINS_12basic_stringIcNS_11char_traitsIcEENS_9allocatorIcEEE5__repES5_E6secondB7v160006Ev, symObjAddr: 0x3000, symBinAddr: 0x100003900, symSize: 0x20 }
  - { offsetInCU: 0x132CE, offset: 0x132CE, size: 0x8, addend: 0x0, symName: __ZNSt3__122__compressed_pair_elemINS_9allocatorIcEELi1ELb1EE5__getB7v160006Ev, symObjAddr: 0x3020, symBinAddr: 0x100003920, symSize: 0x10 }
  - { offsetInCU: 0x132F4, offset: 0x132F4, size: 0x8, addend: 0x0, symName: __ZNSt3__110shared_ptrI9AttributeEC2B7v160006Ev, symObjAddr: 0x3030, symBinAddr: 0x100003930, symSize: 0x20 }
  - { offsetInCU: 0x1331E, offset: 0x1331E, size: 0x8, addend: 0x0, symName: __ZNSt3__16vectorIdNS_9allocatorIdEEEC2B7v160006Ev, symObjAddr: 0x3050, symBinAddr: 0x100003950, symSize: 0x50 }
  - { offsetInCU: 0x1334D, offset: 0x1334D, size: 0x8, addend: 0x0, symName: __ZNSt3__117__compressed_pairIPdNS_9allocatorIdEEEC1B7v160006IDnNS_18__default_init_tagEEEOT_OT0_, symObjAddr: 0x30A0, symBinAddr: 0x1000039A0, symSize: 0x30 }
  - { offsetInCU: 0x133A5, offset: 0x133A5, size: 0x8, addend: 0x0, symName: __ZNSt3__117__compressed_pairIPdNS_9allocatorIdEEEC2B7v160006IDnNS_18__default_init_tagEEEOT_OT0_, symObjAddr: 0x30E0, symBinAddr: 0x1000039E0, symSize: 0x40 }
  - { offsetInCU: 0x133FD, offset: 0x133FD, size: 0x8, addend: 0x0, symName: __ZNSt3__122__compressed_pair_elemIPdLi0ELb0EEC2B7v160006IDnvEEOT_, symObjAddr: 0x3120, symBinAddr: 0x100003A20, symSize: 0x20 }
  - { offsetInCU: 0x1343F, offset: 0x1343F, size: 0x8, addend: 0x0, symName: __ZNSt3__122__compressed_pair_elemINS_9allocatorIdEELi1ELb1EEC2B7v160006ENS_18__default_init_tagE, symObjAddr: 0x3140, symBinAddr: 0x100003A40, symSize: 0x20 }
  - { offsetInCU: 0x13474, offset: 0x13474, size: 0x8, addend: 0x0, symName: __ZNSt3__19allocatorIdEC2B7v160006Ev, symObjAddr: 0x3160, symBinAddr: 0x100003A60, symSize: 0x20 }
  - { offsetInCU: 0x1349E, offset: 0x1349E, size: 0x8, addend: 0x0, symName: __ZNSt3__116__non_trivial_ifILb1ENS_9allocatorIdEEEC2B7v160006Ev, symObjAddr: 0x3180, symBinAddr: 0x100003A80, symSize: 0x10 }
  - { offsetInCU: 0x134C8, offset: 0x134C8, size: 0x8, addend: 0x0, symName: __ZNSt3__16vectorIiNS_9allocatorIiEEEC2B7v160006Ev, symObjAddr: 0x3190, symBinAddr: 0x100003A90, symSize: 0x50 }
  - { offsetInCU: 0x134F2, offset: 0x134F2, size: 0x8, addend: 0x0, symName: __ZNSt3__117__compressed_pairIPiNS_9allocatorIiEEEC1B7v160006IDnNS_18__default_init_tagEEEOT_OT0_, symObjAddr: 0x31E0, symBinAddr: 0x100003AE0, symSize: 0x30 }
  - { offsetInCU: 0x1354A, offset: 0x1354A, size: 0x8, addend: 0x0, symName: __ZNSt3__117__compressed_pairIPiNS_9allocatorIiEEEC2B7v160006IDnNS_18__default_init_tagEEEOT_OT0_, symObjAddr: 0x3220, symBinAddr: 0x100003B20, symSize: 0x40 }
  - { offsetInCU: 0x135A2, offset: 0x135A2, size: 0x8, addend: 0x0, symName: __ZNSt3__122__compressed_pair_elemIPiLi0ELb0EEC2B7v160006IDnvEEOT_, symObjAddr: 0x3260, symBinAddr: 0x100003B60, symSize: 0x20 }
  - { offsetInCU: 0x135E4, offset: 0x135E4, size: 0x8, addend: 0x0, symName: __ZNSt3__122__compressed_pair_elemINS_9allocatorIiEELi1ELb1EEC2B7v160006ENS_18__default_init_tagE, symObjAddr: 0x3280, symBinAddr: 0x100003B80, symSize: 0x20 }
  - { offsetInCU: 0x13619, offset: 0x13619, size: 0x8, addend: 0x0, symName: __ZNSt3__19allocatorIiEC2B7v160006Ev, symObjAddr: 0x32A0, symBinAddr: 0x100003BA0, symSize: 0x20 }
  - { offsetInCU: 0x13643, offset: 0x13643, size: 0x8, addend: 0x0, symName: __ZNSt3__116__non_trivial_ifILb1ENS_9allocatorIiEEEC2B7v160006Ev, symObjAddr: 0x32C0, symBinAddr: 0x100003BC0, symSize: 0x10 }
  - { offsetInCU: 0x1366D, offset: 0x1366D, size: 0x8, addend: 0x0, symName: __ZNSt3__16vectorINS_10shared_ptrI5SkillEENS_9allocatorIS3_EEEC2B7v160006Ev, symObjAddr: 0x32D0, symBinAddr: 0x100003BD0, symSize: 0x50 }
  - { offsetInCU: 0x13697, offset: 0x13697, size: 0x8, addend: 0x0, symName: __ZNSt3__117__compressed_pairIPNS_10shared_ptrI5SkillEENS_9allocatorIS3_EEEC1B7v160006IDnNS_18__default_init_tagEEEOT_OT0_, symObjAddr: 0x3320, symBinAddr: 0x100003C20, symSize: 0x30 }
  - { offsetInCU: 0x136EF, offset: 0x136EF, size: 0x8, addend: 0x0, symName: __ZNSt3__117__compressed_pairIPNS_10shared_ptrI5SkillEENS_9allocatorIS3_EEEC2B7v160006IDnNS_18__default_init_tagEEEOT_OT0_, symObjAddr: 0x3360, symBinAddr: 0x100003C60, symSize: 0x40 }
  - { offsetInCU: 0x13747, offset: 0x13747, size: 0x8, addend: 0x0, symName: __ZNSt3__122__compressed_pair_elemIPNS_10shared_ptrI5SkillEELi0ELb0EEC2B7v160006IDnvEEOT_, symObjAddr: 0x33A0, symBinAddr: 0x100003CA0, symSize: 0x20 }
  - { offsetInCU: 0x13789, offset: 0x13789, size: 0x8, addend: 0x0, symName: __ZNSt3__122__compressed_pair_elemINS_9allocatorINS_10shared_ptrI5SkillEEEELi1ELb1EEC2B7v160006ENS_18__default_init_tagE, symObjAddr: 0x33C0, symBinAddr: 0x100003CC0, symSize: 0x20 }
  - { offsetInCU: 0x137BE, offset: 0x137BE, size: 0x8, addend: 0x0, symName: __ZNSt3__19allocatorINS_10shared_ptrI5SkillEEEC2B7v160006Ev, symObjAddr: 0x33E0, symBinAddr: 0x100003CE0, symSize: 0x20 }
  - { offsetInCU: 0x137E8, offset: 0x137E8, size: 0x8, addend: 0x0, symName: __ZNSt3__116__non_trivial_ifILb1ENS_9allocatorINS_10shared_ptrI5SkillEEEEEC2B7v160006Ev, symObjAddr: 0x3400, symBinAddr: 0x100003D00, symSize: 0x10 }
  - { offsetInCU: 0x13812, offset: 0x13812, size: 0x8, addend: 0x0, symName: __ZNKSt3__112basic_stringIcNS_11char_traitsIcEENS_9allocatorIcEEE4sizeB7v160006Ev, symObjAddr: 0x3410, symBinAddr: 0x100003D10, symSize: 0x50 }
  - { offsetInCU: 0x13838, offset: 0x13838, size: 0x8, addend: 0x0, symName: __ZNKSt3__112basic_stringIcNS_11char_traitsIcEENS_9allocatorIcEEE4dataB7v160006Ev, symObjAddr: 0x3460, symBinAddr: 0x100003D60, symSize: 0x30 }
  - { offsetInCU: 0x1385E, offset: 0x1385E, size: 0x8, addend: 0x0, symName: __ZNKSt3__112basic_stringIcNS_11char_traitsIcEENS_9allocatorIcEEE9__is_longB7v160006Ev, symObjAddr: 0x3490, symBinAddr: 0x100003D90, symSize: 0x60 }
  - { offsetInCU: 0x13884, offset: 0x13884, size: 0x8, addend: 0x0, symName: __ZNSt3__111char_traitsIcE7compareEPKcS3_m, symObjAddr: 0x34F0, symBinAddr: 0x100003DF0, symSize: 0x70 }
  - { offsetInCU: 0x138C3, offset: 0x138C3, size: 0x8, addend: 0x0, symName: __ZNKSt3__112basic_stringIcNS_11char_traitsIcEENS_9allocatorIcEEE15__get_long_sizeB7v160006Ev, symObjAddr: 0x3560, symBinAddr: 0x100003E60, symSize: 0x20 }
  - { offsetInCU: 0x138E9, offset: 0x138E9, size: 0x8, addend: 0x0, symName: __ZNKSt3__112basic_stringIcNS_11char_traitsIcEENS_9allocatorIcEEE16__get_short_sizeB7v160006Ev, symObjAddr: 0x3580, symBinAddr: 0x100003E80, symSize: 0x30 }
  - { offsetInCU: 0x1390F, offset: 0x1390F, size: 0x8, addend: 0x0, symName: __ZNKSt3__117__compressed_pairINS_12basic_stringIcNS_11char_traitsIcEENS_9allocatorIcEEE5__repES5_E5firstB7v160006Ev, symObjAddr: 0x35B0, symBinAddr: 0x100003EB0, symSize: 0x20 }
  - { offsetInCU: 0x13935, offset: 0x13935, size: 0x8, addend: 0x0, symName: __ZNKSt3__122__compressed_pair_elemINS_12basic_stringIcNS_11char_traitsIcEENS_9allocatorIcEEE5__repELi0ELb0EE5__getB7v160006Ev, symObjAddr: 0x35D0, symBinAddr: 0x100003ED0, symSize: 0x10 }
  - { offsetInCU: 0x1395B, offset: 0x1395B, size: 0x8, addend: 0x0, symName: __ZNKSt3__112basic_stringIcNS_11char_traitsIcEENS_9allocatorIcEEE13__get_pointerB7v160006Ev, symObjAddr: 0x35F0, symBinAddr: 0x100003EF0, symSize: 0x50 }
  - { offsetInCU: 0x13981, offset: 0x13981, size: 0x8, addend: 0x0, symName: __ZNKSt3__112basic_stringIcNS_11char_traitsIcEENS_9allocatorIcEEE18__get_long_pointerB7v160006Ev, symObjAddr: 0x3640, symBinAddr: 0x100003F40, symSize: 0x20 }
  - { offsetInCU: 0x139A7, offset: 0x139A7, size: 0x8, addend: 0x0, symName: __ZNKSt3__112basic_stringIcNS_11char_traitsIcEENS_9allocatorIcEEE19__get_short_pointerB7v160006Ev, symObjAddr: 0x3660, symBinAddr: 0x100003F60, symSize: 0x30 }
  - { offsetInCU: 0x139CD, offset: 0x139CD, size: 0x8, addend: 0x0, symName: __ZNSt3__114pointer_traitsIPKcE10pointer_toB7v160006ERS1_, symObjAddr: 0x3690, symBinAddr: 0x100003F90, symSize: 0x10 }
  - { offsetInCU: 0x139F0, offset: 0x139F0, size: 0x8, addend: 0x0, symName: __ZNSt3__110shared_ptrI9AttributeE4swapB7v160006ERS2_, symObjAddr: 0x36D0, symBinAddr: 0x100003FD0, symSize: 0x60 }
  - { offsetInCU: 0x13A25, offset: 0x13A25, size: 0x8, addend: 0x0, symName: __ZNSt3__16vectorIdNS_9allocatorIdEEE9__end_capB7v160006Ev, symObjAddr: 0x37B0, symBinAddr: 0x1000040B0, symSize: 0x20 }
  - { offsetInCU: 0x13A50, offset: 0x13A50, size: 0x8, addend: 0x0, symName: __ZNSt3__16vectorIdNS_9allocatorIdEEE22__construct_one_at_endB7v160006IJdEEEvDpOT_, symObjAddr: 0x37D0, symBinAddr: 0x1000040D0, symSize: 0xA0 }
  - { offsetInCU: 0x13A9F, offset: 0x13A9F, size: 0x8, addend: 0x0, symName: __ZNSt3__16vectorIdNS_9allocatorIdEEE21__push_back_slow_pathIdEEvOT_, symObjAddr: 0x3870, symBinAddr: 0x100004170, symSize: 0xE0 }
  - { offsetInCU: 0x13AFD, offset: 0x13AFD, size: 0x8, addend: 0x0, symName: __ZNSt3__117__compressed_pairIPdNS_9allocatorIdEEE5firstB7v160006Ev, symObjAddr: 0x3950, symBinAddr: 0x100004250, symSize: 0x20 }
  - { offsetInCU: 0x13B23, offset: 0x13B23, size: 0x8, addend: 0x0, symName: __ZNSt3__122__compressed_pair_elemIPdLi0ELb0EE5__getB7v160006Ev, symObjAddr: 0x3970, symBinAddr: 0x100004270, symSize: 0x10 }
  - { offsetInCU: 0x13B62, offset: 0x13B62, size: 0x8, addend: 0x0, symName: __ZNSt3__16vectorIdNS_9allocatorIdEEE21_ConstructTransactionC1B7v160006ERS3_m, symObjAddr: 0x3980, symBinAddr: 0x100004280, symSize: 0x30 }
  - { offsetInCU: 0x13BAA, offset: 0x13BAA, size: 0x8, addend: 0x0, symName: __ZNSt3__116allocator_traitsINS_9allocatorIdEEE9constructB7v160006IdJdEvEEvRS2_PT_DpOT0_, symObjAddr: 0x39B0, symBinAddr: 0x1000042B0, symSize: 0x30 }
  - { offsetInCU: 0x13C01, offset: 0x13C01, size: 0x8, addend: 0x0, symName: __ZNSt3__16vectorIdNS_9allocatorIdEEE21_ConstructTransactionD1B7v160006Ev, symObjAddr: 0x39E0, symBinAddr: 0x1000042E0, symSize: 0x20 }
  - { offsetInCU: 0x13C2B, offset: 0x13C2B, size: 0x8, addend: 0x0, symName: __ZNSt3__16vectorIdNS_9allocatorIdEEE21_ConstructTransactionC2B7v160006ERS3_m, symObjAddr: 0x3A00, symBinAddr: 0x100004300, symSize: 0x40 }
  - { offsetInCU: 0x13C73, offset: 0x13C73, size: 0x8, addend: 0x0, symName: __ZNSt3__19allocatorIdE9constructB7v160006IdJdEEEvPT_DpOT0_, symObjAddr: 0x3A40, symBinAddr: 0x100004340, symSize: 0x30 }
  - { offsetInCU: 0x13CC9, offset: 0x13CC9, size: 0x8, addend: 0x0, symName: __ZNSt3__16vectorIdNS_9allocatorIdEEE21_ConstructTransactionD2B7v160006Ev, symObjAddr: 0x3A70, symBinAddr: 0x100004370, symSize: 0x20 }
  - { offsetInCU: 0x13CF3, offset: 0x13CF3, size: 0x8, addend: 0x0, symName: __ZNKSt3__16vectorIdNS_9allocatorIdEEE11__recommendB7v160006Em, symObjAddr: 0x3A90, symBinAddr: 0x100004390, symSize: 0xA0 }
  - { offsetInCU: 0x13D48, offset: 0x13D48, size: 0x8, addend: 0x0, symName: __ZNSt3__114__split_bufferIdRNS_9allocatorIdEEEC1EmmS3_, symObjAddr: 0x3B30, symBinAddr: 0x100004430, symSize: 0x40 }
  - { offsetInCU: 0x13D9E, offset: 0x13D9E, size: 0x8, addend: 0x0, symName: __ZNSt3__114__split_bufferIdRNS_9allocatorIdEEED1Ev, symObjAddr: 0x3CA0, symBinAddr: 0x1000045A0, symSize: 0x20 }
  - { offsetInCU: 0x13DCA, offset: 0x13DCA, size: 0x8, addend: 0x0, symName: __ZNKSt3__16vectorIdNS_9allocatorIdEEE8max_sizeEv, symObjAddr: 0x3CC0, symBinAddr: 0x1000045C0, symSize: 0x70 }
  - { offsetInCU: 0x13DF2, offset: 0x13DF2, size: 0x8, addend: 0x0, symName: __ZNKSt3__16vectorIdNS_9allocatorIdEEE20__throw_length_errorB7v160006Ev, symObjAddr: 0x3D30, symBinAddr: 0x100004630, symSize: 0x20 }
  - { offsetInCU: 0x13E22, offset: 0x13E22, size: 0x8, addend: 0x0, symName: __ZNSt3__116allocator_traitsINS_9allocatorIdEEE8max_sizeB7v160006IS2_vEEmRKS2_, symObjAddr: 0x3DB0, symBinAddr: 0x1000046B0, symSize: 0x20 }
  - { offsetInCU: 0x13E50, offset: 0x13E50, size: 0x8, addend: 0x0, symName: __ZNKSt3__16vectorIdNS_9allocatorIdEEE7__allocB7v160006Ev, symObjAddr: 0x3DD0, symBinAddr: 0x1000046D0, symSize: 0x20 }
  - { offsetInCU: 0x13E76, offset: 0x13E76, size: 0x8, addend: 0x0, symName: __ZNSt3__114numeric_limitsIlE3maxB7v160006Ev, symObjAddr: 0x3DF0, symBinAddr: 0x1000046F0, symSize: 0x10 }
  - { offsetInCU: 0x13E9E, offset: 0x13E9E, size: 0x8, addend: 0x0, symName: __ZNKSt3__16__lessImmEclB7v160006ERKmS3_, symObjAddr: 0x3E50, symBinAddr: 0x100004750, symSize: 0x30 }
  - { offsetInCU: 0x13EE0, offset: 0x13EE0, size: 0x8, addend: 0x0, symName: __ZNKSt3__19allocatorIdE8max_sizeB7v160006Ev, symObjAddr: 0x3E80, symBinAddr: 0x100004780, symSize: 0x20 }
  - { offsetInCU: 0x13F06, offset: 0x13F06, size: 0x8, addend: 0x0, symName: __ZNKSt3__117__compressed_pairIPdNS_9allocatorIdEEE6secondB7v160006Ev, symObjAddr: 0x3EA0, symBinAddr: 0x1000047A0, symSize: 0x20 }
  - { offsetInCU: 0x13F2C, offset: 0x13F2C, size: 0x8, addend: 0x0, symName: __ZNKSt3__122__compressed_pair_elemINS_9allocatorIdEELi1ELb1EE5__getB7v160006Ev, symObjAddr: 0x3EC0, symBinAddr: 0x1000047C0, symSize: 0x10 }
  - { offsetInCU: 0x13F52, offset: 0x13F52, size: 0x8, addend: 0x0, symName: __ZNSt3__123__libcpp_numeric_limitsIlLb1EE3maxB7v160006Ev, symObjAddr: 0x3ED0, symBinAddr: 0x1000047D0, symSize: 0x10 }
  - { offsetInCU: 0x13F66, offset: 0x13F66, size: 0x8, addend: 0x0, symName: __ZNSt12length_errorC1B7v160006EPKc, symObjAddr: 0x3F50, symBinAddr: 0x100004850, symSize: 0x30 }
  - { offsetInCU: 0x13F9E, offset: 0x13F9E, size: 0x8, addend: 0x0, symName: __ZNSt12length_errorC2B7v160006EPKc, symObjAddr: 0x3F80, symBinAddr: 0x100004880, symSize: 0x40 }
  - { offsetInCU: 0x13FD6, offset: 0x13FD6, size: 0x8, addend: 0x0, symName: __ZNSt3__114__split_bufferIdRNS_9allocatorIdEEEC2EmmS3_, symObjAddr: 0x4010, symBinAddr: 0x100004910, symSize: 0xD0 }
  - { offsetInCU: 0x14049, offset: 0x14049, size: 0x8, addend: 0x0, symName: __ZNSt3__117__compressed_pairIPdRNS_9allocatorIdEEEC1B7v160006IDnS4_EEOT_OT0_, symObjAddr: 0x40E0, symBinAddr: 0x1000049E0, symSize: 0x30 }
  - { offsetInCU: 0x140A1, offset: 0x140A1, size: 0x8, addend: 0x0, symName: __ZNSt3__114__split_bufferIdRNS_9allocatorIdEEE7__allocB7v160006Ev, symObjAddr: 0x4150, symBinAddr: 0x100004A50, symSize: 0x20 }
  - { offsetInCU: 0x140C7, offset: 0x140C7, size: 0x8, addend: 0x0, symName: __ZNSt3__114__split_bufferIdRNS_9allocatorIdEEE9__end_capB7v160006Ev, symObjAddr: 0x4170, symBinAddr: 0x100004A70, symSize: 0x20 }
  - { offsetInCU: 0x140ED, offset: 0x140ED, size: 0x8, addend: 0x0, symName: __ZNSt3__117__compressed_pairIPdRNS_9allocatorIdEEEC2B7v160006IDnS4_EEOT_OT0_, symObjAddr: 0x4190, symBinAddr: 0x100004A90, symSize: 0x40 }
  - { offsetInCU: 0x14145, offset: 0x14145, size: 0x8, addend: 0x0, symName: __ZNSt3__122__compressed_pair_elemIRNS_9allocatorIdEELi1ELb0EEC2B7v160006IS3_vEEOT_, symObjAddr: 0x41D0, symBinAddr: 0x100004AD0, symSize: 0x20 }
  - { offsetInCU: 0x14187, offset: 0x14187, size: 0x8, addend: 0x0, symName: __ZNSt3__19allocatorIdE8allocateB7v160006Em, symObjAddr: 0x41F0, symBinAddr: 0x100004AF0, symSize: 0x80 }
  - { offsetInCU: 0x141BB, offset: 0x141BB, size: 0x8, addend: 0x0, symName: __ZNSt3__117__compressed_pairIPdRNS_9allocatorIdEEE6secondB7v160006Ev, symObjAddr: 0x4270, symBinAddr: 0x100004B70, symSize: 0x20 }
  - { offsetInCU: 0x141E1, offset: 0x141E1, size: 0x8, addend: 0x0, symName: __ZNSt3__122__compressed_pair_elemIRNS_9allocatorIdEELi1ELb0EE5__getB7v160006Ev, symObjAddr: 0x4290, symBinAddr: 0x100004B90, symSize: 0x20 }
  - { offsetInCU: 0x14207, offset: 0x14207, size: 0x8, addend: 0x0, symName: __ZNSt3__117__compressed_pairIPdRNS_9allocatorIdEEE5firstB7v160006Ev, symObjAddr: 0x42B0, symBinAddr: 0x100004BB0, symSize: 0x20 }
  - { offsetInCU: 0x1422D, offset: 0x1422D, size: 0x8, addend: 0x0, symName: __ZNSt3__116reverse_iteratorIPdEC1B7v160006ES1_, symObjAddr: 0x43F0, symBinAddr: 0x100004CF0, symSize: 0x30 }
  - { offsetInCU: 0x14265, offset: 0x14265, size: 0x8, addend: 0x0, symName: __ZNKSt3__116reverse_iteratorIPdE4baseB7v160006Ev, symObjAddr: 0x4420, symBinAddr: 0x100004D20, symSize: 0x20 }
  - { offsetInCU: 0x1428B, offset: 0x1428B, size: 0x8, addend: 0x0, symName: __ZNKSt3__16vectorIdNS_9allocatorIdEEE14__annotate_newB7v160006Em, symObjAddr: 0x4480, symBinAddr: 0x100004D80, symSize: 0xB0 }
  - { offsetInCU: 0x142C0, offset: 0x142C0, size: 0x8, addend: 0x0, symName: __ZNKSt3__116reverse_iteratorIPdEdeB7v160006Ev, symObjAddr: 0x45D0, symBinAddr: 0x100004ED0, symSize: 0x30 }
  - { offsetInCU: 0x142F4, offset: 0x142F4, size: 0x8, addend: 0x0, symName: __ZNSt3__116reverse_iteratorIPdEppB7v160006Ev, symObjAddr: 0x4600, symBinAddr: 0x100004F00, symSize: 0x20 }
  - { offsetInCU: 0x1431F, offset: 0x1431F, size: 0x8, addend: 0x0, symName: __ZNSt3__119__to_address_helperINS_16reverse_iteratorIPdEEvE6__callB7v160006ERKS3_, symObjAddr: 0x46A0, symBinAddr: 0x100004FA0, symSize: 0x50 }
  - { offsetInCU: 0x14342, offset: 0x14342, size: 0x8, addend: 0x0, symName: __ZNKSt3__116reverse_iteratorIPdEptB7v160006Ev, symObjAddr: 0x46F0, symBinAddr: 0x100004FF0, symSize: 0x20 }
  - { offsetInCU: 0x1438B, offset: 0x1438B, size: 0x8, addend: 0x0, symName: __ZNKSt3__111__move_loopINS_17_ClassicAlgPolicyEEclB7v160006INS_16reverse_iteratorIPdEES6_S6_EENS_4pairIT_T1_EES8_T0_S9_, symObjAddr: 0x4AF0, symBinAddr: 0x1000053F0, symSize: 0xA0 }
  - { offsetInCU: 0x143F6, offset: 0x143F6, size: 0x8, addend: 0x0, symName: __ZNSt3__18_IterOpsINS_17_ClassicAlgPolicyEE11__iter_moveB7v160006IRNS_16reverse_iteratorIPdEEEENS_9enable_ifIXsr12is_referenceIDTdeclsr3stdE7declvalIRT_EEEEE5valueEDTclsr3stdE4movedeclsr3stdE7declvalISA_EEEEE4typeEOS9_, symObjAddr: 0x4CE0, symBinAddr: 0x1000055E0, symSize: 0x20 }
  - { offsetInCU: 0x14422, offset: 0x14422, size: 0x8, addend: 0x0, symName: __ZNSt3__18_IterOpsINS_17_ClassicAlgPolicyEE25__validate_iter_referenceB7v160006IRNS_16reverse_iteratorIPdEEEEvv, symObjAddr: 0x4D00, symBinAddr: 0x100005600, symSize: 0x10 }
  - { offsetInCU: 0x14440, offset: 0x14440, size: 0x8, addend: 0x0, symName: __ZNSt3__118__unwrap_iter_implINS_16reverse_iteratorIPdEELb0EE8__unwrapB7v160006ES3_, symObjAddr: 0x4D10, symBinAddr: 0x100005610, symSize: 0x20 }
  - { offsetInCU: 0x14463, offset: 0x14463, size: 0x8, addend: 0x0, symName: __ZNSt3__14pairINS_16reverse_iteratorIPdEES3_EC1B7v160006ERKS3_S6_, symObjAddr: 0x4D30, symBinAddr: 0x100005630, symSize: 0x30 }
  - { offsetInCU: 0x144A9, offset: 0x144A9, size: 0x8, addend: 0x0, symName: __ZNSt3__14pairINS_16reverse_iteratorIPdEES3_EC2B7v160006ERKS3_S6_, symObjAddr: 0x4D60, symBinAddr: 0x100005660, symSize: 0x40 }
  - { offsetInCU: 0x144EF, offset: 0x144EF, size: 0x8, addend: 0x0, symName: __ZNSt3__118__unwrap_iter_implINS_16reverse_iteratorIPdEELb0EE8__rewrapB7v160006ES3_S3_, symObjAddr: 0x4DA0, symBinAddr: 0x1000056A0, symSize: 0x30 }
  - { offsetInCU: 0x1451D, offset: 0x1451D, size: 0x8, addend: 0x0, symName: __ZNSt3__116reverse_iteratorIPdEC2B7v160006ES1_, symObjAddr: 0x4DD0, symBinAddr: 0x1000056D0, symSize: 0x30 }
  - { offsetInCU: 0x14555, offset: 0x14555, size: 0x8, addend: 0x0, symName: __ZNSt3__114__split_bufferIdRNS_9allocatorIdEEED2Ev, symObjAddr: 0x4E00, symBinAddr: 0x100005700, symSize: 0x60 }
  - { offsetInCU: 0x14581, offset: 0x14581, size: 0x8, addend: 0x0, symName: __ZNSt3__114__split_bufferIdRNS_9allocatorIdEEE5clearB7v160006Ev, symObjAddr: 0x4E60, symBinAddr: 0x100005760, symSize: 0x20 }
  - { offsetInCU: 0x145A7, offset: 0x145A7, size: 0x8, addend: 0x0, symName: __ZNKSt3__114__split_bufferIdRNS_9allocatorIdEEE8capacityB7v160006Ev, symObjAddr: 0x4E80, symBinAddr: 0x100005780, symSize: 0x30 }
  - { offsetInCU: 0x145CD, offset: 0x145CD, size: 0x8, addend: 0x0, symName: __ZNSt3__114__split_bufferIdRNS_9allocatorIdEEE17__destruct_at_endB7v160006EPd, symObjAddr: 0x4EB0, symBinAddr: 0x1000057B0, symSize: 0x30 }
  - { offsetInCU: 0x14601, offset: 0x14601, size: 0x8, addend: 0x0, symName: __ZNSt3__114__split_bufferIdRNS_9allocatorIdEEE17__destruct_at_endB7v160006EPdNS_17integral_constantIbLb0EEE, symObjAddr: 0x4EE0, symBinAddr: 0x1000057E0, symSize: 0x80 }
  - { offsetInCU: 0x14642, offset: 0x14642, size: 0x8, addend: 0x0, symName: __ZNKSt3__114__split_bufferIdRNS_9allocatorIdEEE9__end_capB7v160006Ev, symObjAddr: 0x4F60, symBinAddr: 0x100005860, symSize: 0x20 }
  - { offsetInCU: 0x14668, offset: 0x14668, size: 0x8, addend: 0x0, symName: __ZNKSt3__117__compressed_pairIPdRNS_9allocatorIdEEE5firstB7v160006Ev, symObjAddr: 0x4F80, symBinAddr: 0x100005880, symSize: 0x20 }
  - { offsetInCU: 0x1468E, offset: 0x1468E, size: 0x8, addend: 0x0, symName: __ZNSt3__16vectorIiNS_9allocatorIiEEEC2Em, symObjAddr: 0x4FA0, symBinAddr: 0x1000058A0, symSize: 0xE0 }
  - { offsetInCU: 0x146DE, offset: 0x146DE, size: 0x8, addend: 0x0, symName: __ZNSt3__16vectorIiNS_9allocatorIiEEE11__vallocateB7v160006Em, symObjAddr: 0x50C0, symBinAddr: 0x1000059C0, symSize: 0xA0 }
  - { offsetInCU: 0x14722, offset: 0x14722, size: 0x8, addend: 0x0, symName: __ZNSt3__16vectorIiNS_9allocatorIiEEE18__construct_at_endEm, symObjAddr: 0x5160, symBinAddr: 0x100005A60, symSize: 0xD0 }
  - { offsetInCU: 0x14794, offset: 0x14794, size: 0x8, addend: 0x0, symName: __ZNSt3__128__exception_guard_exceptionsINS_6vectorIiNS_9allocatorIiEEE16__destroy_vectorEE10__completeB7v160006Ev, symObjAddr: 0x5230, symBinAddr: 0x100005B30, symSize: 0x20 }
  - { offsetInCU: 0x147BA, offset: 0x147BA, size: 0x8, addend: 0x0, symName: __ZNSt3__128__exception_guard_exceptionsINS_6vectorIiNS_9allocatorIiEEE16__destroy_vectorEED1B7v160006Ev, symObjAddr: 0x5250, symBinAddr: 0x100005B50, symSize: 0x20 }
  - { offsetInCU: 0x147E4, offset: 0x147E4, size: 0x8, addend: 0x0, symName: __ZNSt3__128__exception_guard_exceptionsINS_6vectorIiNS_9allocatorIiEEE16__destroy_vectorEEC1B7v160006ES5_, symObjAddr: 0x5270, symBinAddr: 0x100005B70, symSize: 0x30 }
  - { offsetInCU: 0x1481C, offset: 0x1481C, size: 0x8, addend: 0x0, symName: __ZNSt3__128__exception_guard_exceptionsINS_6vectorIiNS_9allocatorIiEEE16__destroy_vectorEEC2B7v160006ES5_, symObjAddr: 0x52A0, symBinAddr: 0x100005BA0, symSize: 0x20 }
  - { offsetInCU: 0x14854, offset: 0x14854, size: 0x8, addend: 0x0, symName: __ZNKSt3__16vectorIiNS_9allocatorIiEEE8max_sizeEv, symObjAddr: 0x52C0, symBinAddr: 0x100005BC0, symSize: 0x70 }
  - { offsetInCU: 0x1487C, offset: 0x1487C, size: 0x8, addend: 0x0, symName: __ZNKSt3__16vectorIiNS_9allocatorIiEEE20__throw_length_errorB7v160006Ev, symObjAddr: 0x5330, symBinAddr: 0x100005C30, symSize: 0x20 }
  - { offsetInCU: 0x148A2, offset: 0x148A2, size: 0x8, addend: 0x0, symName: __ZNSt3__16vectorIiNS_9allocatorIiEEE9__end_capB7v160006Ev, symObjAddr: 0x5390, symBinAddr: 0x100005C90, symSize: 0x20 }
  - { offsetInCU: 0x148C8, offset: 0x148C8, size: 0x8, addend: 0x0, symName: __ZNKSt3__16vectorIiNS_9allocatorIiEEE14__annotate_newB7v160006Em, symObjAddr: 0x53B0, symBinAddr: 0x100005CB0, symSize: 0xB0 }
  - { offsetInCU: 0x14907, offset: 0x14907, size: 0x8, addend: 0x0, symName: __ZNSt3__116allocator_traitsINS_9allocatorIiEEE8max_sizeB7v160006IS2_vEEmRKS2_, symObjAddr: 0x5460, symBinAddr: 0x100005D60, symSize: 0x20 }
  - { offsetInCU: 0x14935, offset: 0x14935, size: 0x8, addend: 0x0, symName: __ZNKSt3__16vectorIiNS_9allocatorIiEEE7__allocB7v160006Ev, symObjAddr: 0x5480, symBinAddr: 0x100005D80, symSize: 0x20 }
  - { offsetInCU: 0x1495B, offset: 0x1495B, size: 0x8, addend: 0x0, symName: __ZNKSt3__19allocatorIiE8max_sizeB7v160006Ev, symObjAddr: 0x54A0, symBinAddr: 0x100005DA0, symSize: 0x20 }
  - { offsetInCU: 0x14981, offset: 0x14981, size: 0x8, addend: 0x0, symName: __ZNKSt3__117__compressed_pairIPiNS_9allocatorIiEEE6secondB7v160006Ev, symObjAddr: 0x54C0, symBinAddr: 0x100005DC0, symSize: 0x20 }
  - { offsetInCU: 0x149A7, offset: 0x149A7, size: 0x8, addend: 0x0, symName: __ZNKSt3__122__compressed_pair_elemINS_9allocatorIiEELi1ELb1EE5__getB7v160006Ev, symObjAddr: 0x54E0, symBinAddr: 0x100005DE0, symSize: 0x10 }
  - { offsetInCU: 0x149CD, offset: 0x149CD, size: 0x8, addend: 0x0, symName: __ZNSt3__19allocatorIiE8allocateB7v160006Em, symObjAddr: 0x54F0, symBinAddr: 0x100005DF0, symSize: 0x80 }
  - { offsetInCU: 0x14A01, offset: 0x14A01, size: 0x8, addend: 0x0, symName: __ZNSt3__117__compressed_pairIPiNS_9allocatorIiEEE5firstB7v160006Ev, symObjAddr: 0x5570, symBinAddr: 0x100005E70, symSize: 0x20 }
  - { offsetInCU: 0x14A27, offset: 0x14A27, size: 0x8, addend: 0x0, symName: __ZNSt3__122__compressed_pair_elemIPiLi0ELb0EE5__getB7v160006Ev, symObjAddr: 0x5590, symBinAddr: 0x100005E90, symSize: 0x10 }
  - { offsetInCU: 0x14A66, offset: 0x14A66, size: 0x8, addend: 0x0, symName: __ZNSt3__16vectorIiNS_9allocatorIiEEE21_ConstructTransactionC1B7v160006ERS3_m, symObjAddr: 0x55A0, symBinAddr: 0x100005EA0, symSize: 0x30 }
  - { offsetInCU: 0x14AAE, offset: 0x14AAE, size: 0x8, addend: 0x0, symName: __ZNSt3__116allocator_traitsINS_9allocatorIiEEE9constructB7v160006IiJEvEEvRS2_PT_DpOT0_, symObjAddr: 0x55D0, symBinAddr: 0x100005ED0, symSize: 0x30 }
  - { offsetInCU: 0x14AF0, offset: 0x14AF0, size: 0x8, addend: 0x0, symName: __ZNSt3__16vectorIiNS_9allocatorIiEEE21_ConstructTransactionD1B7v160006Ev, symObjAddr: 0x5600, symBinAddr: 0x100005F00, symSize: 0x20 }
  - { offsetInCU: 0x14B1A, offset: 0x14B1A, size: 0x8, addend: 0x0, symName: __ZNSt3__16vectorIiNS_9allocatorIiEEE21_ConstructTransactionC2B7v160006ERS3_m, symObjAddr: 0x5620, symBinAddr: 0x100005F20, symSize: 0x40 }
  - { offsetInCU: 0x14B62, offset: 0x14B62, size: 0x8, addend: 0x0, symName: __ZNSt3__19allocatorIiE9constructB7v160006IiJEEEvPT_DpOT0_, symObjAddr: 0x5660, symBinAddr: 0x100005F60, symSize: 0x20 }
  - { offsetInCU: 0x14BA4, offset: 0x14BA4, size: 0x8, addend: 0x0, symName: __ZNSt3__16vectorIiNS_9allocatorIiEEE21_ConstructTransactionD2B7v160006Ev, symObjAddr: 0x5680, symBinAddr: 0x100005F80, symSize: 0x20 }
  - { offsetInCU: 0x14BCE, offset: 0x14BCE, size: 0x8, addend: 0x0, symName: __ZNSt3__128__exception_guard_exceptionsINS_6vectorIiNS_9allocatorIiEEE16__destroy_vectorEED2B7v160006Ev, symObjAddr: 0x56A0, symBinAddr: 0x100005FA0, symSize: 0x30 }
  - { offsetInCU: 0x14BF8, offset: 0x14BF8, size: 0x8, addend: 0x0, symName: __ZNSt3__16vectorIiNS_9allocatorIiEEE13__move_assignERS3_NS_17integral_constantIbLb1EEE, symObjAddr: 0x56D0, symBinAddr: 0x100005FD0, symSize: 0xA0 }
  - { offsetInCU: 0x14C3A, offset: 0x14C3A, size: 0x8, addend: 0x0, symName: __ZNSt3__16vectorIiNS_9allocatorIiEEE13__vdeallocateEv, symObjAddr: 0x5770, symBinAddr: 0x100006070, symSize: 0x80 }
  - { offsetInCU: 0x14C62, offset: 0x14C62, size: 0x8, addend: 0x0, symName: __ZNSt3__16vectorIiNS_9allocatorIiEEE19__move_assign_allocB7v160006ERS3_, symObjAddr: 0x57F0, symBinAddr: 0x1000060F0, symSize: 0x30 }
  - { offsetInCU: 0x14C97, offset: 0x14C97, size: 0x8, addend: 0x0, symName: __ZNSt3__16vectorIiNS_9allocatorIiEEE19__move_assign_allocB7v160006ERS3_NS_17integral_constantIbLb1EEE, symObjAddr: 0x5830, symBinAddr: 0x100006130, symSize: 0x30 }
  - { offsetInCU: 0x14CD7, offset: 0x14CD7, size: 0x8, addend: 0x0, symName: __ZNSt3__16vectorINS_10shared_ptrI5SkillEENS_9allocatorIS3_EEE9__end_capB7v160006Ev, symObjAddr: 0x5860, symBinAddr: 0x100006160, symSize: 0x20 }
  - { offsetInCU: 0x14CFD, offset: 0x14CFD, size: 0x8, addend: 0x0, symName: __ZNSt3__16vectorINS_10shared_ptrI5SkillEENS_9allocatorIS3_EEE22__construct_one_at_endB7v160006IJRKS3_EEEvDpOT_, symObjAddr: 0x5880, symBinAddr: 0x100006180, symSize: 0xA0 }
  - { offsetInCU: 0x14D4C, offset: 0x14D4C, size: 0x8, addend: 0x0, symName: __ZNSt3__16vectorINS_10shared_ptrI5SkillEENS_9allocatorIS3_EEE21__push_back_slow_pathIRKS3_EEvOT_, symObjAddr: 0x5920, symBinAddr: 0x100006220, symSize: 0xE0 }
  - { offsetInCU: 0x14DAA, offset: 0x14DAA, size: 0x8, addend: 0x0, symName: __ZNSt3__117__compressed_pairIPNS_10shared_ptrI5SkillEENS_9allocatorIS3_EEE5firstB7v160006Ev, symObjAddr: 0x5A00, symBinAddr: 0x100006300, symSize: 0x20 }
  - { offsetInCU: 0x14DD0, offset: 0x14DD0, size: 0x8, addend: 0x0, symName: __ZNSt3__122__compressed_pair_elemIPNS_10shared_ptrI5SkillEELi0ELb0EE5__getB7v160006Ev, symObjAddr: 0x5A20, symBinAddr: 0x100006320, symSize: 0x10 }
  - { offsetInCU: 0x14E0F, offset: 0x14E0F, size: 0x8, addend: 0x0, symName: __ZNSt3__16vectorINS_10shared_ptrI5SkillEENS_9allocatorIS3_EEE21_ConstructTransactionC1B7v160006ERS6_m, symObjAddr: 0x5A30, symBinAddr: 0x100006330, symSize: 0x30 }
  - { offsetInCU: 0x14E57, offset: 0x14E57, size: 0x8, addend: 0x0, symName: __ZNSt3__116allocator_traitsINS_9allocatorINS_10shared_ptrI5SkillEEEEE9constructB7v160006IS4_JRKS4_EvEEvRS5_PT_DpOT0_, symObjAddr: 0x5A60, symBinAddr: 0x100006360, symSize: 0x30 }
  - { offsetInCU: 0x14EAE, offset: 0x14EAE, size: 0x8, addend: 0x0, symName: __ZNSt3__16vectorINS_10shared_ptrI5SkillEENS_9allocatorIS3_EEE21_ConstructTransactionD1B7v160006Ev, symObjAddr: 0x5A90, symBinAddr: 0x100006390, symSize: 0x20 }
  - { offsetInCU: 0x14ED8, offset: 0x14ED8, size: 0x8, addend: 0x0, symName: __ZNSt3__16vectorINS_10shared_ptrI5SkillEENS_9allocatorIS3_EEE21_ConstructTransactionC2B7v160006ERS6_m, symObjAddr: 0x5AB0, symBinAddr: 0x1000063B0, symSize: 0x40 }
  - { offsetInCU: 0x14F20, offset: 0x14F20, size: 0x8, addend: 0x0, symName: __ZNSt3__19allocatorINS_10shared_ptrI5SkillEEE9constructB7v160006IS3_JRKS3_EEEvPT_DpOT0_, symObjAddr: 0x5AF0, symBinAddr: 0x1000063F0, symSize: 0x30 }
  - { offsetInCU: 0x14F76, offset: 0x14F76, size: 0x8, addend: 0x0, symName: __ZNSt3__110shared_ptrI5SkillEC1B7v160006ERKS2_, symObjAddr: 0x5B20, symBinAddr: 0x100006420, symSize: 0x30 }
  - { offsetInCU: 0x14FAF, offset: 0x14FAF, size: 0x8, addend: 0x0, symName: __ZNSt3__110shared_ptrI5SkillEC2B7v160006ERKS2_, symObjAddr: 0x5B50, symBinAddr: 0x100006450, symSize: 0x50 }
  - { offsetInCU: 0x14FE8, offset: 0x14FE8, size: 0x8, addend: 0x0, symName: __ZNSt3__16vectorINS_10shared_ptrI5SkillEENS_9allocatorIS3_EEE21_ConstructTransactionD2B7v160006Ev, symObjAddr: 0x5BA0, symBinAddr: 0x1000064A0, symSize: 0x20 }
  - { offsetInCU: 0x15012, offset: 0x15012, size: 0x8, addend: 0x0, symName: __ZNKSt3__16vectorINS_10shared_ptrI5SkillEENS_9allocatorIS3_EEE11__recommendB7v160006Em, symObjAddr: 0x5BC0, symBinAddr: 0x1000064C0, symSize: 0xA0 }
  - { offsetInCU: 0x15067, offset: 0x15067, size: 0x8, addend: 0x0, symName: __ZNSt3__114__split_bufferINS_10shared_ptrI5SkillEERNS_9allocatorIS3_EEEC1EmmS6_, symObjAddr: 0x5C60, symBinAddr: 0x100006560, symSize: 0x40 }
  - { offsetInCU: 0x150BD, offset: 0x150BD, size: 0x8, addend: 0x0, symName: __ZNSt3__114__split_bufferINS_10shared_ptrI5SkillEERNS_9allocatorIS3_EEED1Ev, symObjAddr: 0x5DD0, symBinAddr: 0x1000066D0, symSize: 0x20 }
  - { offsetInCU: 0x150E9, offset: 0x150E9, size: 0x8, addend: 0x0, symName: __ZNKSt3__16vectorINS_10shared_ptrI5SkillEENS_9allocatorIS3_EEE8max_sizeEv, symObjAddr: 0x5DF0, symBinAddr: 0x1000066F0, symSize: 0x70 }
  - { offsetInCU: 0x15111, offset: 0x15111, size: 0x8, addend: 0x0, symName: __ZNKSt3__16vectorINS_10shared_ptrI5SkillEENS_9allocatorIS3_EEE20__throw_length_errorB7v160006Ev, symObjAddr: 0x5E60, symBinAddr: 0x100006760, symSize: 0x20 }
  - { offsetInCU: 0x15141, offset: 0x15141, size: 0x8, addend: 0x0, symName: __ZNSt3__116allocator_traitsINS_9allocatorINS_10shared_ptrI5SkillEEEEE8max_sizeB7v160006IS5_vEEmRKS5_, symObjAddr: 0x5E80, symBinAddr: 0x100006780, symSize: 0x20 }
  - { offsetInCU: 0x1516F, offset: 0x1516F, size: 0x8, addend: 0x0, symName: __ZNKSt3__16vectorINS_10shared_ptrI5SkillEENS_9allocatorIS3_EEE7__allocB7v160006Ev, symObjAddr: 0x5EA0, symBinAddr: 0x1000067A0, symSize: 0x20 }
  - { offsetInCU: 0x15195, offset: 0x15195, size: 0x8, addend: 0x0, symName: __ZNKSt3__19allocatorINS_10shared_ptrI5SkillEEE8max_sizeB7v160006Ev, symObjAddr: 0x5EC0, symBinAddr: 0x1000067C0, symSize: 0x20 }
  - { offsetInCU: 0x151BB, offset: 0x151BB, size: 0x8, addend: 0x0, symName: __ZNKSt3__117__compressed_pairIPNS_10shared_ptrI5SkillEENS_9allocatorIS3_EEE6secondB7v160006Ev, symObjAddr: 0x5EE0, symBinAddr: 0x1000067E0, symSize: 0x20 }
  - { offsetInCU: 0x151E1, offset: 0x151E1, size: 0x8, addend: 0x0, symName: __ZNKSt3__122__compressed_pair_elemINS_9allocatorINS_10shared_ptrI5SkillEEEELi1ELb1EE5__getB7v160006Ev, symObjAddr: 0x5F00, symBinAddr: 0x100006800, symSize: 0x10 }
  - { offsetInCU: 0x15207, offset: 0x15207, size: 0x8, addend: 0x0, symName: __ZNSt3__114__split_bufferINS_10shared_ptrI5SkillEERNS_9allocatorIS3_EEEC2EmmS6_, symObjAddr: 0x5F10, symBinAddr: 0x100006810, symSize: 0xD0 }
  - { offsetInCU: 0x1527A, offset: 0x1527A, size: 0x8, addend: 0x0, symName: __ZNSt3__117__compressed_pairIPNS_10shared_ptrI5SkillEERNS_9allocatorIS3_EEEC1B7v160006IDnS7_EEOT_OT0_, symObjAddr: 0x5FE0, symBinAddr: 0x1000068E0, symSize: 0x30 }
  - { offsetInCU: 0x152D2, offset: 0x152D2, size: 0x8, addend: 0x0, symName: __ZNSt3__114__split_bufferINS_10shared_ptrI5SkillEERNS_9allocatorIS3_EEE7__allocB7v160006Ev, symObjAddr: 0x6050, symBinAddr: 0x100006950, symSize: 0x20 }
  - { offsetInCU: 0x152F8, offset: 0x152F8, size: 0x8, addend: 0x0, symName: __ZNSt3__114__split_bufferINS_10shared_ptrI5SkillEERNS_9allocatorIS3_EEE9__end_capB7v160006Ev, symObjAddr: 0x6070, symBinAddr: 0x100006970, symSize: 0x20 }
  - { offsetInCU: 0x1531E, offset: 0x1531E, size: 0x8, addend: 0x0, symName: __ZNSt3__117__compressed_pairIPNS_10shared_ptrI5SkillEERNS_9allocatorIS3_EEEC2B7v160006IDnS7_EEOT_OT0_, symObjAddr: 0x6090, symBinAddr: 0x100006990, symSize: 0x40 }
  - { offsetInCU: 0x15376, offset: 0x15376, size: 0x8, addend: 0x0, symName: __ZNSt3__122__compressed_pair_elemIRNS_9allocatorINS_10shared_ptrI5SkillEEEELi1ELb0EEC2B7v160006IS6_vEEOT_, symObjAddr: 0x60D0, symBinAddr: 0x1000069D0, symSize: 0x20 }
  - { offsetInCU: 0x153B8, offset: 0x153B8, size: 0x8, addend: 0x0, symName: __ZNSt3__19allocatorINS_10shared_ptrI5SkillEEE8allocateB7v160006Em, symObjAddr: 0x60F0, symBinAddr: 0x1000069F0, symSize: 0x80 }
  - { offsetInCU: 0x153EC, offset: 0x153EC, size: 0x8, addend: 0x0, symName: __ZNSt3__117__compressed_pairIPNS_10shared_ptrI5SkillEERNS_9allocatorIS3_EEE6secondB7v160006Ev, symObjAddr: 0x6170, symBinAddr: 0x100006A70, symSize: 0x20 }
  - { offsetInCU: 0x15412, offset: 0x15412, size: 0x8, addend: 0x0, symName: __ZNSt3__122__compressed_pair_elemIRNS_9allocatorINS_10shared_ptrI5SkillEEEELi1ELb0EE5__getB7v160006Ev, symObjAddr: 0x6190, symBinAddr: 0x100006A90, symSize: 0x20 }
  - { offsetInCU: 0x15438, offset: 0x15438, size: 0x8, addend: 0x0, symName: __ZNSt3__117__compressed_pairIPNS_10shared_ptrI5SkillEERNS_9allocatorIS3_EEE5firstB7v160006Ev, symObjAddr: 0x61B0, symBinAddr: 0x100006AB0, symSize: 0x20 }
  - { offsetInCU: 0x1545E, offset: 0x1545E, size: 0x8, addend: 0x0, symName: __ZNSt3__116reverse_iteratorIPNS_10shared_ptrI5SkillEEEC1B7v160006ES4_, symObjAddr: 0x6360, symBinAddr: 0x100006C60, symSize: 0x30 }
  - { offsetInCU: 0x15496, offset: 0x15496, size: 0x8, addend: 0x0, symName: __ZNKSt3__116reverse_iteratorIPNS_10shared_ptrI5SkillEEE4baseB7v160006Ev, symObjAddr: 0x6390, symBinAddr: 0x100006C90, symSize: 0x20 }
  - { offsetInCU: 0x154BC, offset: 0x154BC, size: 0x8, addend: 0x0, symName: __ZNKSt3__16vectorINS_10shared_ptrI5SkillEENS_9allocatorIS3_EEE14__annotate_newB7v160006Em, symObjAddr: 0x63F0, symBinAddr: 0x100006CF0, symSize: 0xB0 }
  - { offsetInCU: 0x154F1, offset: 0x154F1, size: 0x8, addend: 0x0, symName: __ZNSt3__129_AllocatorDestroyRangeReverseINS_9allocatorINS_10shared_ptrI5SkillEEEENS_16reverse_iteratorIPS4_EEEC1B7v160006ERS5_RS8_SB_, symObjAddr: 0x6510, symBinAddr: 0x100006E10, symSize: 0x40 }
  - { offsetInCU: 0x15548, offset: 0x15548, size: 0x8, addend: 0x0, symName: __ZNKSt3__116reverse_iteratorIPNS_10shared_ptrI5SkillEEEdeB7v160006Ev, symObjAddr: 0x65B0, symBinAddr: 0x100006EB0, symSize: 0x30 }
  - { offsetInCU: 0x1557C, offset: 0x1557C, size: 0x8, addend: 0x0, symName: __ZNSt3__116reverse_iteratorIPNS_10shared_ptrI5SkillEEEppB7v160006Ev, symObjAddr: 0x65E0, symBinAddr: 0x100006EE0, symSize: 0x20 }
  - { offsetInCU: 0x155A2, offset: 0x155A2, size: 0x8, addend: 0x0, symName: __ZNSt3__128__exception_guard_exceptionsINS_29_AllocatorDestroyRangeReverseINS_9allocatorINS_10shared_ptrI5SkillEEEENS_16reverse_iteratorIPS5_EEEEE10__completeB7v160006Ev, symObjAddr: 0x6600, symBinAddr: 0x100006F00, symSize: 0x20 }
  - { offsetInCU: 0x155C8, offset: 0x155C8, size: 0x8, addend: 0x0, symName: __ZNSt3__128__exception_guard_exceptionsINS_29_AllocatorDestroyRangeReverseINS_9allocatorINS_10shared_ptrI5SkillEEEENS_16reverse_iteratorIPS5_EEEEED1B7v160006Ev, symObjAddr: 0x6620, symBinAddr: 0x100006F20, symSize: 0x20 }
  - { offsetInCU: 0x155F2, offset: 0x155F2, size: 0x8, addend: 0x0, symName: __ZNSt3__128__exception_guard_exceptionsINS_29_AllocatorDestroyRangeReverseINS_9allocatorINS_10shared_ptrI5SkillEEEENS_16reverse_iteratorIPS5_EEEEEC1B7v160006ESA_, symObjAddr: 0x6640, symBinAddr: 0x100006F40, symSize: 0x40 }
  - { offsetInCU: 0x1562A, offset: 0x1562A, size: 0x8, addend: 0x0, symName: __ZNSt3__128__exception_guard_exceptionsINS_29_AllocatorDestroyRangeReverseINS_9allocatorINS_10shared_ptrI5SkillEEEENS_16reverse_iteratorIPS5_EEEEEC2B7v160006ESA_, symObjAddr: 0x6680, symBinAddr: 0x100006F80, symSize: 0x30 }
  - { offsetInCU: 0x15662, offset: 0x15662, size: 0x8, addend: 0x0, symName: __ZNSt3__129_AllocatorDestroyRangeReverseINS_9allocatorINS_10shared_ptrI5SkillEEEENS_16reverse_iteratorIPS4_EEEC2B7v160006ERS5_RS8_SB_, symObjAddr: 0x66B0, symBinAddr: 0x100006FB0, symSize: 0x40 }
  - { offsetInCU: 0x156BE, offset: 0x156BE, size: 0x8, addend: 0x0, symName: __ZNSt3__119__to_address_helperINS_16reverse_iteratorIPNS_10shared_ptrI5SkillEEEEvE6__callB7v160006ERKS6_, symObjAddr: 0x66F0, symBinAddr: 0x100006FF0, symSize: 0x50 }
  - { offsetInCU: 0x156E1, offset: 0x156E1, size: 0x8, addend: 0x0, symName: __ZNKSt3__116reverse_iteratorIPNS_10shared_ptrI5SkillEEEptB7v160006Ev, symObjAddr: 0x6740, symBinAddr: 0x100007040, symSize: 0x20 }
  - { offsetInCU: 0x15707, offset: 0x15707, size: 0x8, addend: 0x0, symName: __ZNSt3__128__exception_guard_exceptionsINS_29_AllocatorDestroyRangeReverseINS_9allocatorINS_10shared_ptrI5SkillEEEENS_16reverse_iteratorIPS5_EEEEED2B7v160006Ev, symObjAddr: 0x6760, symBinAddr: 0x100007060, symSize: 0x30 }
  - { offsetInCU: 0x15731, offset: 0x15731, size: 0x8, addend: 0x0, symName: __ZNKSt3__129_AllocatorDestroyRangeReverseINS_9allocatorINS_10shared_ptrI5SkillEEEENS_16reverse_iteratorIPS4_EEEclB7v160006Ev, symObjAddr: 0x6790, symBinAddr: 0x100007090, symSize: 0xF0 }
  - { offsetInCU: 0x15758, offset: 0x15758, size: 0x8, addend: 0x0, symName: __ZNSt3__116reverse_iteratorINS0_IPNS_10shared_ptrI5SkillEEEEEC1B7v160006ES5_, symObjAddr: 0x68F0, symBinAddr: 0x1000071F0, symSize: 0x30 }
  - { offsetInCU: 0x15790, offset: 0x15790, size: 0x8, addend: 0x0, symName: __ZNSt3__116reverse_iteratorINS0_IPNS_10shared_ptrI5SkillEEEEEppB7v160006Ev, symObjAddr: 0x6990, symBinAddr: 0x100007290, symSize: 0x30 }
  - { offsetInCU: 0x157B6, offset: 0x157B6, size: 0x8, addend: 0x0, symName: __ZNKSt3__116reverse_iteratorINS0_IPNS_10shared_ptrI5SkillEEEEE4baseB7v160006Ev, symObjAddr: 0x69C0, symBinAddr: 0x1000072C0, symSize: 0x20 }
  - { offsetInCU: 0x157E1, offset: 0x157E1, size: 0x8, addend: 0x0, symName: __ZNSt3__119__to_address_helperINS_16reverse_iteratorINS1_IPNS_10shared_ptrI5SkillEEEEEEvE6__callB7v160006ERKS7_, symObjAddr: 0x69E0, symBinAddr: 0x1000072E0, symSize: 0x50 }
  - { offsetInCU: 0x15804, offset: 0x15804, size: 0x8, addend: 0x0, symName: __ZNKSt3__116reverse_iteratorINS0_IPNS_10shared_ptrI5SkillEEEEEptB7v160006Ev, symObjAddr: 0x6A30, symBinAddr: 0x100007330, symSize: 0x20 }
  - { offsetInCU: 0x1582A, offset: 0x1582A, size: 0x8, addend: 0x0, symName: __ZNKSt3__116reverse_iteratorINS0_IPNS_10shared_ptrI5SkillEEEEEdeB7v160006Ev, symObjAddr: 0x6A50, symBinAddr: 0x100007350, symSize: 0x40 }
  - { offsetInCU: 0x1585E, offset: 0x1585E, size: 0x8, addend: 0x0, symName: __ZNSt3__116reverse_iteratorIPNS_10shared_ptrI5SkillEEEmmB7v160006Ev, symObjAddr: 0x6A90, symBinAddr: 0x100007390, symSize: 0x20 }
  - { offsetInCU: 0x15884, offset: 0x15884, size: 0x8, addend: 0x0, symName: __ZNSt3__116reverse_iteratorINS0_IPNS_10shared_ptrI5SkillEEEEEC2B7v160006ES5_, symObjAddr: 0x6AB0, symBinAddr: 0x1000073B0, symSize: 0x40 }
  - { offsetInCU: 0x158BC, offset: 0x158BC, size: 0x8, addend: 0x0, symName: __ZNSt3__116reverse_iteratorIPNS_10shared_ptrI5SkillEEEC2B7v160006ES4_, symObjAddr: 0x6AF0, symBinAddr: 0x1000073F0, symSize: 0x30 }
  - { offsetInCU: 0x158F4, offset: 0x158F4, size: 0x8, addend: 0x0, symName: __ZNSt3__114__split_bufferINS_10shared_ptrI5SkillEERNS_9allocatorIS3_EEED2Ev, symObjAddr: 0x6B20, symBinAddr: 0x100007420, symSize: 0x60 }
  - { offsetInCU: 0x15920, offset: 0x15920, size: 0x8, addend: 0x0, symName: __ZNSt3__114__split_bufferINS_10shared_ptrI5SkillEERNS_9allocatorIS3_EEE5clearB7v160006Ev, symObjAddr: 0x6B80, symBinAddr: 0x100007480, symSize: 0x20 }
  - { offsetInCU: 0x15946, offset: 0x15946, size: 0x8, addend: 0x0, symName: __ZNKSt3__114__split_bufferINS_10shared_ptrI5SkillEERNS_9allocatorIS3_EEE8capacityB7v160006Ev, symObjAddr: 0x6BA0, symBinAddr: 0x1000074A0, symSize: 0x30 }
  - { offsetInCU: 0x1596C, offset: 0x1596C, size: 0x8, addend: 0x0, symName: __ZNSt3__114__split_bufferINS_10shared_ptrI5SkillEERNS_9allocatorIS3_EEE17__destruct_at_endB7v160006EPS3_, symObjAddr: 0x6BD0, symBinAddr: 0x1000074D0, symSize: 0x30 }
  - { offsetInCU: 0x159A0, offset: 0x159A0, size: 0x8, addend: 0x0, symName: __ZNSt3__114__split_bufferINS_10shared_ptrI5SkillEERNS_9allocatorIS3_EEE17__destruct_at_endB7v160006EPS3_NS_17integral_constantIbLb0EEE, symObjAddr: 0x6C00, symBinAddr: 0x100007500, symSize: 0x80 }
  - { offsetInCU: 0x159E1, offset: 0x159E1, size: 0x8, addend: 0x0, symName: __ZNKSt3__114__split_bufferINS_10shared_ptrI5SkillEERNS_9allocatorIS3_EEE9__end_capB7v160006Ev, symObjAddr: 0x6C80, symBinAddr: 0x100007580, symSize: 0x20 }
  - { offsetInCU: 0x15A07, offset: 0x15A07, size: 0x8, addend: 0x0, symName: __ZNKSt3__117__compressed_pairIPNS_10shared_ptrI5SkillEERNS_9allocatorIS3_EEE5firstB7v160006Ev, symObjAddr: 0x6CA0, symBinAddr: 0x1000075A0, symSize: 0x20 }
  - { offsetInCU: 0x15A2D, offset: 0x15A2D, size: 0x8, addend: 0x0, symName: __ZNSt3__16vectorIiNS_9allocatorIiEEE22__construct_one_at_endB7v160006IJRKiEEEvDpOT_, symObjAddr: 0x6CC0, symBinAddr: 0x1000075C0, symSize: 0xA0 }
  - { offsetInCU: 0x15A7C, offset: 0x15A7C, size: 0x8, addend: 0x0, symName: __ZNSt3__16vectorIiNS_9allocatorIiEEE21__push_back_slow_pathIRKiEEvOT_, symObjAddr: 0x6D60, symBinAddr: 0x100007660, symSize: 0xE0 }
  - { offsetInCU: 0x15ADA, offset: 0x15ADA, size: 0x8, addend: 0x0, symName: __ZNSt3__116allocator_traitsINS_9allocatorIiEEE9constructB7v160006IiJRKiEvEEvRS2_PT_DpOT0_, symObjAddr: 0x6E40, symBinAddr: 0x100007740, symSize: 0x30 }
  - { offsetInCU: 0x15B31, offset: 0x15B31, size: 0x8, addend: 0x0, symName: __ZNSt3__19allocatorIiE9constructB7v160006IiJRKiEEEvPT_DpOT0_, symObjAddr: 0x6E70, symBinAddr: 0x100007770, symSize: 0x20 }
  - { offsetInCU: 0x15B87, offset: 0x15B87, size: 0x8, addend: 0x0, symName: __ZNKSt3__16vectorIiNS_9allocatorIiEEE11__recommendB7v160006Em, symObjAddr: 0x6E90, symBinAddr: 0x100007790, symSize: 0xA0 }
  - { offsetInCU: 0x15BDC, offset: 0x15BDC, size: 0x8, addend: 0x0, symName: __ZNSt3__114__split_bufferIiRNS_9allocatorIiEEEC1EmmS3_, symObjAddr: 0x6F30, symBinAddr: 0x100007830, symSize: 0x40 }
  - { offsetInCU: 0x15C32, offset: 0x15C32, size: 0x8, addend: 0x0, symName: __ZNSt3__114__split_bufferIiRNS_9allocatorIiEEED1Ev, symObjAddr: 0x70A0, symBinAddr: 0x1000079A0, symSize: 0x20 }
  - { offsetInCU: 0x15C5E, offset: 0x15C5E, size: 0x8, addend: 0x0, symName: __ZNSt3__114__split_bufferIiRNS_9allocatorIiEEEC2EmmS3_, symObjAddr: 0x70C0, symBinAddr: 0x1000079C0, symSize: 0xD0 }
  - { offsetInCU: 0x15CD1, offset: 0x15CD1, size: 0x8, addend: 0x0, symName: __ZNSt3__117__compressed_pairIPiRNS_9allocatorIiEEEC1B7v160006IDnS4_EEOT_OT0_, symObjAddr: 0x7190, symBinAddr: 0x100007A90, symSize: 0x30 }
  - { offsetInCU: 0x15D29, offset: 0x15D29, size: 0x8, addend: 0x0, symName: __ZNSt3__114__split_bufferIiRNS_9allocatorIiEEE7__allocB7v160006Ev, symObjAddr: 0x71C0, symBinAddr: 0x100007AC0, symSize: 0x20 }
  - { offsetInCU: 0x15D4F, offset: 0x15D4F, size: 0x8, addend: 0x0, symName: __ZNSt3__114__split_bufferIiRNS_9allocatorIiEEE9__end_capB7v160006Ev, symObjAddr: 0x71E0, symBinAddr: 0x100007AE0, symSize: 0x20 }
  - { offsetInCU: 0x15D75, offset: 0x15D75, size: 0x8, addend: 0x0, symName: __ZNSt3__117__compressed_pairIPiRNS_9allocatorIiEEEC2B7v160006IDnS4_EEOT_OT0_, symObjAddr: 0x7200, symBinAddr: 0x100007B00, symSize: 0x40 }
  - { offsetInCU: 0x15DCD, offset: 0x15DCD, size: 0x8, addend: 0x0, symName: __ZNSt3__122__compressed_pair_elemIRNS_9allocatorIiEELi1ELb0EEC2B7v160006IS3_vEEOT_, symObjAddr: 0x7240, symBinAddr: 0x100007B40, symSize: 0x20 }
  - { offsetInCU: 0x15E0F, offset: 0x15E0F, size: 0x8, addend: 0x0, symName: __ZNSt3__117__compressed_pairIPiRNS_9allocatorIiEEE6secondB7v160006Ev, symObjAddr: 0x7260, symBinAddr: 0x100007B60, symSize: 0x20 }
  - { offsetInCU: 0x15E35, offset: 0x15E35, size: 0x8, addend: 0x0, symName: __ZNSt3__122__compressed_pair_elemIRNS_9allocatorIiEELi1ELb0EE5__getB7v160006Ev, symObjAddr: 0x7280, symBinAddr: 0x100007B80, symSize: 0x20 }
  - { offsetInCU: 0x15E5B, offset: 0x15E5B, size: 0x8, addend: 0x0, symName: __ZNSt3__117__compressed_pairIPiRNS_9allocatorIiEEE5firstB7v160006Ev, symObjAddr: 0x72A0, symBinAddr: 0x100007BA0, symSize: 0x20 }
  - { offsetInCU: 0x15E81, offset: 0x15E81, size: 0x8, addend: 0x0, symName: __ZNSt3__116reverse_iteratorIPiEC1B7v160006ES1_, symObjAddr: 0x73E0, symBinAddr: 0x100007CE0, symSize: 0x30 }
  - { offsetInCU: 0x15EB9, offset: 0x15EB9, size: 0x8, addend: 0x0, symName: __ZNKSt3__116reverse_iteratorIPiE4baseB7v160006Ev, symObjAddr: 0x7410, symBinAddr: 0x100007D10, symSize: 0x20 }
  - { offsetInCU: 0x15EDF, offset: 0x15EDF, size: 0x8, addend: 0x0, symName: __ZNKSt3__116reverse_iteratorIPiEdeB7v160006Ev, symObjAddr: 0x7510, symBinAddr: 0x100007E10, symSize: 0x30 }
  - { offsetInCU: 0x15F13, offset: 0x15F13, size: 0x8, addend: 0x0, symName: __ZNSt3__116reverse_iteratorIPiEppB7v160006Ev, symObjAddr: 0x7540, symBinAddr: 0x100007E40, symSize: 0x20 }
  - { offsetInCU: 0x15F3E, offset: 0x15F3E, size: 0x8, addend: 0x0, symName: __ZNSt3__119__to_address_helperINS_16reverse_iteratorIPiEEvE6__callB7v160006ERKS3_, symObjAddr: 0x75E0, symBinAddr: 0x100007EE0, symSize: 0x50 }
  - { offsetInCU: 0x15F61, offset: 0x15F61, size: 0x8, addend: 0x0, symName: __ZNKSt3__116reverse_iteratorIPiEptB7v160006Ev, symObjAddr: 0x7630, symBinAddr: 0x100007F30, symSize: 0x20 }
  - { offsetInCU: 0x15FA0, offset: 0x15FA0, size: 0x8, addend: 0x0, symName: __ZNKSt3__111__move_loopINS_17_ClassicAlgPolicyEEclB7v160006INS_16reverse_iteratorIPiEES6_S6_EENS_4pairIT_T1_EES8_T0_S9_, symObjAddr: 0x7A30, symBinAddr: 0x100008330, symSize: 0xA0 }
  - { offsetInCU: 0x16010, offset: 0x16010, size: 0x8, addend: 0x0, symName: __ZNSt3__18_IterOpsINS_17_ClassicAlgPolicyEE11__iter_moveB7v160006IRNS_16reverse_iteratorIPiEEEENS_9enable_ifIXsr12is_referenceIDTdeclsr3stdE7declvalIRT_EEEEE5valueEDTclsr3stdE4movedeclsr3stdE7declvalISA_EEEEE4typeEOS9_, symObjAddr: 0x7C20, symBinAddr: 0x100008520, symSize: 0x20 }
  - { offsetInCU: 0x1603C, offset: 0x1603C, size: 0x8, addend: 0x0, symName: __ZNSt3__18_IterOpsINS_17_ClassicAlgPolicyEE25__validate_iter_referenceB7v160006IRNS_16reverse_iteratorIPiEEEEvv, symObjAddr: 0x7C40, symBinAddr: 0x100008540, symSize: 0x10 }
  - { offsetInCU: 0x1605A, offset: 0x1605A, size: 0x8, addend: 0x0, symName: __ZNSt3__118__unwrap_iter_implINS_16reverse_iteratorIPiEELb0EE8__unwrapB7v160006ES3_, symObjAddr: 0x7C50, symBinAddr: 0x100008550, symSize: 0x20 }
  - { offsetInCU: 0x1607D, offset: 0x1607D, size: 0x8, addend: 0x0, symName: __ZNSt3__14pairINS_16reverse_iteratorIPiEES3_EC1B7v160006ERKS3_S6_, symObjAddr: 0x7C70, symBinAddr: 0x100008570, symSize: 0x30 }
  - { offsetInCU: 0x160C3, offset: 0x160C3, size: 0x8, addend: 0x0, symName: __ZNSt3__14pairINS_16reverse_iteratorIPiEES3_EC2B7v160006ERKS3_S6_, symObjAddr: 0x7CA0, symBinAddr: 0x1000085A0, symSize: 0x40 }
  - { offsetInCU: 0x16109, offset: 0x16109, size: 0x8, addend: 0x0, symName: __ZNSt3__118__unwrap_iter_implINS_16reverse_iteratorIPiEELb0EE8__rewrapB7v160006ES3_S3_, symObjAddr: 0x7CE0, symBinAddr: 0x1000085E0, symSize: 0x30 }
  - { offsetInCU: 0x16137, offset: 0x16137, size: 0x8, addend: 0x0, symName: __ZNSt3__116reverse_iteratorIPiEC2B7v160006ES1_, symObjAddr: 0x7D10, symBinAddr: 0x100008610, symSize: 0x30 }
  - { offsetInCU: 0x1616F, offset: 0x1616F, size: 0x8, addend: 0x0, symName: __ZNSt3__114__split_bufferIiRNS_9allocatorIiEEED2Ev, symObjAddr: 0x7D40, symBinAddr: 0x100008640, symSize: 0x60 }
  - { offsetInCU: 0x1619B, offset: 0x1619B, size: 0x8, addend: 0x0, symName: __ZNSt3__114__split_bufferIiRNS_9allocatorIiEEE5clearB7v160006Ev, symObjAddr: 0x7DA0, symBinAddr: 0x1000086A0, symSize: 0x20 }
  - { offsetInCU: 0x161C1, offset: 0x161C1, size: 0x8, addend: 0x0, symName: __ZNKSt3__114__split_bufferIiRNS_9allocatorIiEEE8capacityB7v160006Ev, symObjAddr: 0x7DC0, symBinAddr: 0x1000086C0, symSize: 0x30 }
  - { offsetInCU: 0x161E7, offset: 0x161E7, size: 0x8, addend: 0x0, symName: __ZNSt3__114__split_bufferIiRNS_9allocatorIiEEE17__destruct_at_endB7v160006EPi, symObjAddr: 0x7DF0, symBinAddr: 0x1000086F0, symSize: 0x30 }
  - { offsetInCU: 0x1621B, offset: 0x1621B, size: 0x8, addend: 0x0, symName: __ZNSt3__114__split_bufferIiRNS_9allocatorIiEEE17__destruct_at_endB7v160006EPiNS_17integral_constantIbLb0EEE, symObjAddr: 0x7E20, symBinAddr: 0x100008720, symSize: 0x80 }
  - { offsetInCU: 0x1625C, offset: 0x1625C, size: 0x8, addend: 0x0, symName: __ZNKSt3__114__split_bufferIiRNS_9allocatorIiEEE9__end_capB7v160006Ev, symObjAddr: 0x7EA0, symBinAddr: 0x1000087A0, symSize: 0x20 }
  - { offsetInCU: 0x16282, offset: 0x16282, size: 0x8, addend: 0x0, symName: __ZNKSt3__117__compressed_pairIPiRNS_9allocatorIiEEE5firstB7v160006Ev, symObjAddr: 0x7EC0, symBinAddr: 0x1000087C0, symSize: 0x20 }
  - { offsetInCU: 0x162A8, offset: 0x162A8, size: 0x8, addend: 0x0, symName: __ZNSt3__16vectorIiNS_9allocatorIiEEE22__construct_one_at_endB7v160006IJiEEEvDpOT_, symObjAddr: 0x7EE0, symBinAddr: 0x1000087E0, symSize: 0xA0 }
  - { offsetInCU: 0x162F7, offset: 0x162F7, size: 0x8, addend: 0x0, symName: __ZNSt3__16vectorIiNS_9allocatorIiEEE21__push_back_slow_pathIiEEvOT_, symObjAddr: 0x7F80, symBinAddr: 0x100008880, symSize: 0xE0 }
  - { offsetInCU: 0x16355, offset: 0x16355, size: 0x8, addend: 0x0, symName: __ZNSt3__116allocator_traitsINS_9allocatorIiEEE9constructB7v160006IiJiEvEEvRS2_PT_DpOT0_, symObjAddr: 0x8060, symBinAddr: 0x100008960, symSize: 0x30 }
  - { offsetInCU: 0x163AC, offset: 0x163AC, size: 0x8, addend: 0x0, symName: __ZNSt3__19allocatorIiE9constructB7v160006IiJiEEEvPT_DpOT0_, symObjAddr: 0x8090, symBinAddr: 0x100008990, symSize: 0x20 }
  - { offsetInCU: 0x16420, offset: 0x16420, size: 0x8, addend: 0x0, symName: __ZNKSt3__113basic_ostreamIcNS_11char_traitsIcEEE6sentrycvbB7v160006Ev, symObjAddr: 0x82A0, symBinAddr: 0x100008BA0, symSize: 0x20 }
  - { offsetInCU: 0x16446, offset: 0x16446, size: 0x8, addend: 0x0, symName: __ZNSt3__119ostreambuf_iteratorIcNS_11char_traitsIcEEEC1B7v160006ERNS_13basic_ostreamIcS2_EE, symObjAddr: 0x84E0, symBinAddr: 0x100008DE0, symSize: 0x30 }
  - { offsetInCU: 0x1647E, offset: 0x1647E, size: 0x8, addend: 0x0, symName: __ZNKSt3__18ios_base5flagsB7v160006Ev, symObjAddr: 0x8510, symBinAddr: 0x100008E10, symSize: 0x20 }
  - { offsetInCU: 0x164A6, offset: 0x164A6, size: 0x8, addend: 0x0, symName: __ZNKSt3__19basic_iosIcNS_11char_traitsIcEEE4fillB7v160006Ev, symObjAddr: 0x8530, symBinAddr: 0x100008E30, symSize: 0x70 }
  - { offsetInCU: 0x164CE, offset: 0x164CE, size: 0x8, addend: 0x0, symName: __ZNKSt3__119ostreambuf_iteratorIcNS_11char_traitsIcEEE6failedB7v160006Ev, symObjAddr: 0x85A0, symBinAddr: 0x100008EA0, symSize: 0x20 }
  - { offsetInCU: 0x164F4, offset: 0x164F4, size: 0x8, addend: 0x0, symName: __ZNSt3__19basic_iosIcNS_11char_traitsIcEEE8setstateB7v160006Ej, symObjAddr: 0x85C0, symBinAddr: 0x100008EC0, symSize: 0x30 }
  - { offsetInCU: 0x16529, offset: 0x16529, size: 0x8, addend: 0x0, symName: __ZNKSt3__18ios_base5widthB7v160006Ev, symObjAddr: 0x85F0, symBinAddr: 0x100008EF0, symSize: 0x20 }
  - { offsetInCU: 0x16551, offset: 0x16551, size: 0x8, addend: 0x0, symName: __ZNSt3__115basic_streambufIcNS_11char_traitsIcEEE5sputnB7v160006EPKcl, symObjAddr: 0x8610, symBinAddr: 0x100008F10, symSize: 0x30 }
  - { offsetInCU: 0x16593, offset: 0x16593, size: 0x8, addend: 0x0, symName: __ZNSt3__112basic_stringIcNS_11char_traitsIcEENS_9allocatorIcEEEC1B7v160006Emc, symObjAddr: 0x8640, symBinAddr: 0x100008F40, symSize: 0x30 }
  - { offsetInCU: 0x165DB, offset: 0x165DB, size: 0x8, addend: 0x0, symName: __ZNSt3__18ios_base5widthB7v160006El, symObjAddr: 0x8670, symBinAddr: 0x100008F70, symSize: 0x30 }
  - { offsetInCU: 0x16621, offset: 0x16621, size: 0x8, addend: 0x0, symName: __ZNSt3__112basic_stringIcNS_11char_traitsIcEENS_9allocatorIcEEEC2B7v160006Emc, symObjAddr: 0x86A0, symBinAddr: 0x100008FA0, symSize: 0x50 }
  - { offsetInCU: 0x16669, offset: 0x16669, size: 0x8, addend: 0x0, symName: __ZNSt3__119ostreambuf_iteratorIcNS_11char_traitsIcEEEC2B7v160006ERNS_13basic_ostreamIcS2_EE, symObjAddr: 0x86F0, symBinAddr: 0x100008FF0, symSize: 0x60 }
  - { offsetInCU: 0x166A1, offset: 0x166A1, size: 0x8, addend: 0x0, symName: __ZNKSt3__19basic_iosIcNS_11char_traitsIcEEE5rdbufB7v160006Ev, symObjAddr: 0x8750, symBinAddr: 0x100009050, symSize: 0x20 }
  - { offsetInCU: 0x166C9, offset: 0x166C9, size: 0x8, addend: 0x0, symName: __ZNKSt3__18ios_base5rdbufB7v160006Ev, symObjAddr: 0x8770, symBinAddr: 0x100009070, symSize: 0x20 }
  - { offsetInCU: 0x166EF, offset: 0x166EF, size: 0x8, addend: 0x0, symName: __ZNSt3__111char_traitsIcE11eq_int_typeEii, symObjAddr: 0x8790, symBinAddr: 0x100009090, symSize: 0x20 }
  - { offsetInCU: 0x16720, offset: 0x16720, size: 0x8, addend: 0x0, symName: __ZNSt3__111char_traitsIcE3eofEv, symObjAddr: 0x87B0, symBinAddr: 0x1000090B0, symSize: 0x10 }
  - { offsetInCU: 0x16734, offset: 0x16734, size: 0x8, addend: 0x0, symName: __ZNKSt3__19basic_iosIcNS_11char_traitsIcEEE5widenB7v160006Ec, symObjAddr: 0x87C0, symBinAddr: 0x1000090C0, symSize: 0x90 }
  - { offsetInCU: 0x1679D, offset: 0x1679D, size: 0x8, addend: 0x0, symName: __ZNKSt3__15ctypeIcE5widenB7v160006Ec, symObjAddr: 0x8880, symBinAddr: 0x100009180, symSize: 0x30 }
  - { offsetInCU: 0x167D2, offset: 0x167D2, size: 0x8, addend: 0x0, symName: __ZNSt3__18ios_base8setstateB7v160006Ej, symObjAddr: 0x88B0, symBinAddr: 0x1000091B0, symSize: 0x30 }
  - { offsetInCU: 0x16809, offset: 0x16809, size: 0x8, addend: 0x0, symName: __ZNSt3__111char_traitsIcE6lengthEPKc, symObjAddr: 0x88E0, symBinAddr: 0x1000091E0, symSize: 0x40 }
  - { offsetInCU: 0x1682C, offset: 0x1682C, size: 0x8, addend: 0x0, symName: __ZNSt3__112basic_stringIcNS_11char_traitsIcEENS_9allocatorIcEEEC2B7v160006IDnEEPKc, symObjAddr: 0x8940, symBinAddr: 0x100009240, symSize: 0x60 }
  - { offsetInCU: 0x1686A, offset: 0x1686A, size: 0x8, addend: 0x0, symName: __ZNSt3__123mersenne_twister_engineIjLm32ELm624ELm397ELm31ELj2567483615ELm11ELj4294967295ELm7ELj2636928640ELm15ELj4022730752ELm18ELj1812433253EEC2B7v160006Ej, symObjAddr: 0x89A0, symBinAddr: 0x1000092A0, symSize: 0x30 }
  - { offsetInCU: 0x168A2, offset: 0x168A2, size: 0x8, addend: 0x0, symName: __ZNSt3__123mersenne_twister_engineIjLm32ELm624ELm397ELm31ELj2567483615ELm11ELj4294967295ELm7ELj2636928640ELm15ELj4022730752ELm18ELj1812433253EE4seedEj, symObjAddr: 0x89D0, symBinAddr: 0x1000092D0, symSize: 0xB0 }
  - { offsetInCU: 0x168F5, offset: 0x168F5, size: 0x8, addend: 0x0, symName: __ZNSt3__123mersenne_twister_engineIjLm32ELm624ELm397ELm31ELj2567483615ELm11ELj4294967295ELm7ELj2636928640ELm15ELj4022730752ELm18ELj1812433253EE8__rshiftB7v160006ILm30EEENS_9enable_ifIXltT_L_ZNS1_3_DtEEEjE4typeEj, symObjAddr: 0x8A80, symBinAddr: 0x100009380, symSize: 0x10 }
  - { offsetInCU: 0x16922, offset: 0x16922, size: 0x8, addend: 0x0, symName: __ZNSt3__125uniform_real_distributionIdEC2B7v160006Edd, symObjAddr: 0x8A90, symBinAddr: 0x100009390, symSize: 0x30 }
  - { offsetInCU: 0x16968, offset: 0x16968, size: 0x8, addend: 0x0, symName: __ZNSt3__125uniform_real_distributionIdE10param_typeC1B7v160006Edd, symObjAddr: 0x8AC0, symBinAddr: 0x1000093C0, symSize: 0x30 }
  - { offsetInCU: 0x169AE, offset: 0x169AE, size: 0x8, addend: 0x0, symName: __ZNSt3__125uniform_real_distributionIdE10param_typeC2B7v160006Edd, symObjAddr: 0x8AF0, symBinAddr: 0x1000093F0, symSize: 0x30 }
  - { offsetInCU: 0x169F4, offset: 0x169F4, size: 0x8, addend: 0x0, symName: __ZNSt3__125uniform_real_distributionIdEclINS_23mersenne_twister_engineIjLm32ELm624ELm397ELm31ELj2567483615ELm11ELj4294967295ELm7ELj2636928640ELm15ELj4022730752ELm18ELj1812433253EEEEEdRT_RKNS1_10param_typeE, symObjAddr: 0x8B20, symBinAddr: 0x100009420, symSize: 0x70 }
  - { offsetInCU: 0x16A40, offset: 0x16A40, size: 0x8, addend: 0x0, symName: __ZNKSt3__125uniform_real_distributionIdE10param_type1bB7v160006Ev, symObjAddr: 0x8B90, symBinAddr: 0x100009490, symSize: 0x20 }
  - { offsetInCU: 0x16A66, offset: 0x16A66, size: 0x8, addend: 0x0, symName: __ZNKSt3__125uniform_real_distributionIdE10param_type1aB7v160006Ev, symObjAddr: 0x8BB0, symBinAddr: 0x1000094B0, symSize: 0x20 }
  - { offsetInCU: 0x16A8C, offset: 0x16A8C, size: 0x8, addend: 0x0, symName: __ZNSt3__123mersenne_twister_engineIjLm32ELm624ELm397ELm31ELj2567483615ELm11ELj4294967295ELm7ELj2636928640ELm15ELj4022730752ELm18ELj1812433253EE3maxB7v160006Ev, symObjAddr: 0x8CD0, symBinAddr: 0x1000095D0, symSize: 0x10 }
  - { offsetInCU: 0x16AA0, offset: 0x16AA0, size: 0x8, addend: 0x0, symName: __ZNSt3__123mersenne_twister_engineIjLm32ELm624ELm397ELm31ELj2567483615ELm11ELj4294967295ELm7ELj2636928640ELm15ELj4022730752ELm18ELj1812433253EE3minB7v160006Ev, symObjAddr: 0x8CE0, symBinAddr: 0x1000095E0, symSize: 0x10 }
  - { offsetInCU: 0x16AB4, offset: 0x16AB4, size: 0x8, addend: 0x0, symName: __ZNSt3__123mersenne_twister_engineIjLm32ELm624ELm397ELm31ELj2567483615ELm11ELj4294967295ELm7ELj2636928640ELm15ELj4022730752ELm18ELj1812433253EEclEv, symObjAddr: 0x8CF0, symBinAddr: 0x1000095F0, symSize: 0x130 }
  - { offsetInCU: 0x16B27, offset: 0x16B27, size: 0x8, addend: 0x0, symName: __ZNSt3__123mersenne_twister_engineIjLm32ELm624ELm397ELm31ELj2567483615ELm11ELj4294967295ELm7ELj2636928640ELm15ELj4022730752ELm18ELj1812433253EE8__rshiftB7v160006ILm1EEENS_9enable_ifIXltT_L_ZNS1_3_DtEEEjE4typeEj, symObjAddr: 0x8E20, symBinAddr: 0x100009720, symSize: 0x10 }
  - { offsetInCU: 0x16B54, offset: 0x16B54, size: 0x8, addend: 0x0, symName: __ZNSt3__123mersenne_twister_engineIjLm32ELm624ELm397ELm31ELj2567483615ELm11ELj4294967295ELm7ELj2636928640ELm15ELj4022730752ELm18ELj1812433253EE8__rshiftB7v160006ILm11EEENS_9enable_ifIXltT_L_ZNS1_3_DtEEEjE4typeEj, symObjAddr: 0x8E30, symBinAddr: 0x100009730, symSize: 0x10 }
  - { offsetInCU: 0x16B81, offset: 0x16B81, size: 0x8, addend: 0x0, symName: __ZNSt3__123mersenne_twister_engineIjLm32ELm624ELm397ELm31ELj2567483615ELm11ELj4294967295ELm7ELj2636928640ELm15ELj4022730752ELm18ELj1812433253EE8__lshiftB7v160006ILm7EEENS_9enable_ifIXltT_Lm32EEjE4typeEj, symObjAddr: 0x8E40, symBinAddr: 0x100009740, symSize: 0x20 }
  - { offsetInCU: 0x16BAE, offset: 0x16BAE, size: 0x8, addend: 0x0, symName: __ZNSt3__123mersenne_twister_engineIjLm32ELm624ELm397ELm31ELj2567483615ELm11ELj4294967295ELm7ELj2636928640ELm15ELj4022730752ELm18ELj1812433253EE8__lshiftB7v160006ILm15EEENS_9enable_ifIXltT_Lm32EEjE4typeEj, symObjAddr: 0x8E60, symBinAddr: 0x100009760, symSize: 0x20 }
  - { offsetInCU: 0x16BDB, offset: 0x16BDB, size: 0x8, addend: 0x0, symName: __ZNSt3__123mersenne_twister_engineIjLm32ELm624ELm397ELm31ELj2567483615ELm11ELj4294967295ELm7ELj2636928640ELm15ELj4022730752ELm18ELj1812433253EE8__rshiftB7v160006ILm18EEENS_9enable_ifIXltT_L_ZNS1_3_DtEEEjE4typeEj, symObjAddr: 0x8E80, symBinAddr: 0x100009780, symSize: 0x10 }
  - { offsetInCU: 0x16C08, offset: 0x16C08, size: 0x8, addend: 0x0, symName: __ZNKSt3__16vectorIiNS_9allocatorIiEEE17__annotate_shrinkB7v160006Em, symObjAddr: 0x8E90, symBinAddr: 0x100009790, symSize: 0x9D }
  - { offsetInCU: 0x76, offset: 0x16E83, size: 0x8, addend: 0x0, symName: _PokemonName, symObjAddr: 0x5A930, symBinAddr: 0x100030008, symSize: 0x0 }
  - { offsetInCU: 0x734E, offset: 0x1E15B, size: 0x8, addend: 0x0, symName: __ZNSt3__19__shuffleB7v160006INS_17_ClassicAlgPolicyENS_11__wrap_iterIPiEES4_RNS_23mersenne_twister_engineIjLm32ELm624ELm397ELm31ELj2567483615ELm11ELj4294967295ELm7ELj2636928640ELm15ELj4022730752ELm18ELj1812433253EEEEET0_S8_T1_OT2_, symObjAddr: 0x79C0, symBinAddr: 0x10000DEC0, symSize: 0x130 }
  - { offsetInCU: 0x85E1, offset: 0x1F3EE, size: 0x8, addend: 0x0, symName: __ZNSt3__1rsB7v160006IcNS_11char_traitsIcEENS_9allocatorIcEEEERNS_13basic_istreamIT_T0_EES9_RNS_12basic_stringIS6_S7_T1_EE, symObjAddr: 0x2F0, symBinAddr: 0x100009AA0, symSize: 0x300 }
  - { offsetInCU: 0x86B0, offset: 0x1F4BD, size: 0x8, addend: 0x0, symName: __ZNSt3__17shuffleB7v160006INS_11__wrap_iterIPiEERNS_23mersenne_twister_engineIjLm32ELm624ELm397ELm31ELj2567483615ELm11ELj4294967295ELm7ELj2636928640ELm15ELj4022730752ELm18ELj1812433253EEEEEvT_S7_OT0_, symObjAddr: 0xA60, symBinAddr: 0x10000A090, symSize: 0x40 }
  - { offsetInCU: 0x8706, offset: 0x1F513, size: 0x8, addend: 0x0, symName: __ZNSt3__122__make_exception_guardB7v160006INS_6vectorINS_12basic_stringIcNS_11char_traitsIcEENS_9allocatorIcEEEENS5_IS7_EEE16__destroy_vectorEEENS_28__exception_guard_exceptionsIT_EESC_, symObjAddr: 0x13E0, symBinAddr: 0x10000A360, symSize: 0x40 }
  - { offsetInCU: 0x873B, offset: 0x1F548, size: 0x8, addend: 0x0, symName: __ZNSt3__119__debug_db_insert_cB7v160006INS_6vectorINS_12basic_stringIcNS_11char_traitsIcEENS_9allocatorIcEEEENS5_IS7_EEEEEEvPT_, symObjAddr: 0x1450, symBinAddr: 0x10000A3D0, symSize: 0x10 }
  - { offsetInCU: 0x876C, offset: 0x1F579, size: 0x8, addend: 0x0, symName: __ZNSt3__119__allocate_at_leastB7v160006INS_9allocatorINS_12basic_stringIcNS_11char_traitsIcEENS1_IcEEEEEEEENS_19__allocation_resultINS_16allocator_traitsIT_E7pointerEEERSA_m, symObjAddr: 0x17C0, symBinAddr: 0x10000A740, symSize: 0x40 }
  - { offsetInCU: 0x87AF, offset: 0x1F5BC, size: 0x8, addend: 0x0, symName: __ZNSt3__112__to_addressB7v160006INS_12basic_stringIcNS_11char_traitsIcEENS_9allocatorIcEEEEEEPT_S8_, symObjAddr: 0x1D00, symBinAddr: 0x10000AA50, symSize: 0x10 }
  - { offsetInCU: 0x87E4, offset: 0x1F5F1, size: 0x8, addend: 0x0, symName: __ZNSt3__118__debug_db_erase_cB7v160006INS_6vectorINS_12basic_stringIcNS_11char_traitsIcEENS_9allocatorIcEEEENS5_IS7_EEEEEEvPT_, symObjAddr: 0x1FE0, symBinAddr: 0x10000AD30, symSize: 0x10 }
  - { offsetInCU: 0x8815, offset: 0x1F622, size: 0x8, addend: 0x0, symName: __ZNSt3__122__make_exception_guardB7v160006INS_6vectorINS1_INS_12basic_stringIcNS_11char_traitsIcEENS_9allocatorIcEEEENS5_IS7_EEEENS5_IS9_EEE16__destroy_vectorEEENS_28__exception_guard_exceptionsIT_EESE_, symObjAddr: 0x2320, symBinAddr: 0x10000B070, symSize: 0x40 }
  - { offsetInCU: 0x884A, offset: 0x1F657, size: 0x8, addend: 0x0, symName: __ZNSt3__119__debug_db_insert_cB7v160006INS_6vectorINS1_INS_12basic_stringIcNS_11char_traitsIcEENS_9allocatorIcEEEENS5_IS7_EEEENS5_IS9_EEEEEEvPT_, symObjAddr: 0x2390, symBinAddr: 0x10000B0E0, symSize: 0x10 }
  - { offsetInCU: 0x887B, offset: 0x1F688, size: 0x8, addend: 0x0, symName: __ZNSt3__119__allocate_at_leastB7v160006INS_9allocatorINS_6vectorINS_12basic_stringIcNS_11char_traitsIcEENS1_IcEEEENS1_IS7_EEEEEEEENS_19__allocation_resultINS_16allocator_traitsIT_E7pointerEEERSD_m, symObjAddr: 0x2700, symBinAddr: 0x10000B450, symSize: 0x40 }
  - { offsetInCU: 0x88BE, offset: 0x1F6CB, size: 0x8, addend: 0x0, symName: __ZNSt3__112__to_addressB7v160006INS_6vectorINS_12basic_stringIcNS_11char_traitsIcEENS_9allocatorIcEEEENS5_IS7_EEEEEEPT_SB_, symObjAddr: 0x2A10, symBinAddr: 0x10000B760, symSize: 0x10 }
  - { offsetInCU: 0x88F3, offset: 0x1F700, size: 0x8, addend: 0x0, symName: __ZNSt3__130__uninitialized_allocator_copyB7v160006INS_9allocatorINS_12basic_stringIcNS_11char_traitsIcEENS1_IcEEEEEEPS6_S8_S8_EET2_RT_T0_T1_S9_, symObjAddr: 0x2DD0, symBinAddr: 0x10000BB20, symSize: 0x110 }
  - { offsetInCU: 0x8991, offset: 0x1F79E, size: 0x8, addend: 0x0, symName: __ZNSt3__122__make_exception_guardB7v160006INS_29_AllocatorDestroyRangeReverseINS_9allocatorINS_12basic_stringIcNS_11char_traitsIcEENS2_IcEEEEEEPS7_EEEENS_28__exception_guard_exceptionsIT_EESC_, symObjAddr: 0x2EE0, symBinAddr: 0x10000BC30, symSize: 0x60 }
  - { offsetInCU: 0x89C6, offset: 0x1F7D3, size: 0x8, addend: 0x0, symName: __ZNSt3__119__allocator_destroyB7v160006INS_9allocatorINS_12basic_stringIcNS_11char_traitsIcEENS1_IcEEEEEENS_16reverse_iteratorIPS6_EESA_EEvRT_T0_T1_, symObjAddr: 0x3160, symBinAddr: 0x10000BEB0, symSize: 0x70 }
  - { offsetInCU: 0x8A29, offset: 0x1F836, size: 0x8, addend: 0x0, symName: __ZNSt3__1neB7v160006IPNS_12basic_stringIcNS_11char_traitsIcEENS_9allocatorIcEEEES7_EEbRKNS_16reverse_iteratorIT_EERKNS8_IT0_EE, symObjAddr: 0x3200, symBinAddr: 0x10000BF50, symSize: 0x40 }
  - { offsetInCU: 0x8A75, offset: 0x1F882, size: 0x8, addend: 0x0, symName: __ZNSt3__112__to_addressB7v160006INS_16reverse_iteratorIPNS_12basic_stringIcNS_11char_traitsIcEENS_9allocatorIcEEEEEEvEENS_5decayIDTclsr19__to_address_helperIT_EE6__callclsr3stdE7declvalIRKSB_EEEEE4typeESD_, symObjAddr: 0x3240, symBinAddr: 0x10000BF90, symSize: 0x20 }
  - { offsetInCU: 0x8AD4, offset: 0x1F8E1, size: 0x8, addend: 0x0, symName: __ZNSt3__118__debug_db_erase_cB7v160006INS_6vectorINS1_INS_12basic_stringIcNS_11char_traitsIcEENS_9allocatorIcEEEENS5_IS7_EEEENS5_IS9_EEEEEEvPT_, symObjAddr: 0x3500, symBinAddr: 0x10000C250, symSize: 0x10 }
  - { offsetInCU: 0x8B05, offset: 0x1F912, size: 0x8, addend: 0x0, symName: __ZNSt3__122__make_exception_guardB7v160006INS_6vectorINS1_IiNS_9allocatorIiEEEENS2_IS4_EEE16__destroy_vectorEEENS_28__exception_guard_exceptionsIT_EES9_, symObjAddr: 0x4070, symBinAddr: 0x10000C750, symSize: 0x40 }
  - { offsetInCU: 0x8B3A, offset: 0x1F947, size: 0x8, addend: 0x0, symName: __ZNSt3__119__debug_db_insert_cB7v160006INS_6vectorINS1_IiNS_9allocatorIiEEEENS2_IS4_EEEEEEvPT_, symObjAddr: 0x40E0, symBinAddr: 0x10000C7C0, symSize: 0x10 }
  - { offsetInCU: 0x8B6B, offset: 0x1F978, size: 0x8, addend: 0x0, symName: __ZNSt3__119__allocate_at_leastB7v160006INS_9allocatorINS_6vectorIiNS1_IiEEEEEEEENS_19__allocation_resultINS_16allocator_traitsIT_E7pointerEEERS8_m, symObjAddr: 0x4450, symBinAddr: 0x10000CB30, symSize: 0x40 }
  - { offsetInCU: 0x8BAE, offset: 0x1F9BB, size: 0x8, addend: 0x0, symName: __ZNSt3__112__to_addressB7v160006INS_6vectorIiNS_9allocatorIiEEEEEEPT_S6_, symObjAddr: 0x4760, symBinAddr: 0x10000CE40, symSize: 0x10 }
  - { offsetInCU: 0x8BE3, offset: 0x1F9F0, size: 0x8, addend: 0x0, symName: __ZNSt3__130__uninitialized_allocator_copyB7v160006INS_9allocatorIiEEPiS3_S3_EET2_RT_T0_T1_S4_, symObjAddr: 0x4B20, symBinAddr: 0x10000D200, symSize: 0x110 }
  - { offsetInCU: 0x8C81, offset: 0x1FA8E, size: 0x8, addend: 0x0, symName: __ZNSt3__122__make_exception_guardB7v160006INS_29_AllocatorDestroyRangeReverseINS_9allocatorIiEEPiEEEENS_28__exception_guard_exceptionsIT_EES7_, symObjAddr: 0x4C30, symBinAddr: 0x10000D310, symSize: 0x60 }
  - { offsetInCU: 0x8CB6, offset: 0x1FAC3, size: 0x8, addend: 0x0, symName: __ZNSt3__119__allocator_destroyB7v160006INS_9allocatorIiEENS_16reverse_iteratorIPiEES5_EEvRT_T0_T1_, symObjAddr: 0x4EA0, symBinAddr: 0x10000D580, symSize: 0x70 }
  - { offsetInCU: 0x8D19, offset: 0x1FB26, size: 0x8, addend: 0x0, symName: __ZNSt3__118__debug_db_erase_cB7v160006INS_6vectorINS1_IiNS_9allocatorIiEEEENS2_IS4_EEEEEEvPT_, symObjAddr: 0x5240, symBinAddr: 0x10000D780, symSize: 0x10 }
  - { offsetInCU: 0x92D4, offset: 0x200E1, size: 0x8, addend: 0x0, symName: __ZNSt3__125__debug_db_invalidate_allB7v160006INS_12basic_stringIcNS_11char_traitsIcEENS_9allocatorIcEEEEEEvPT_, symObjAddr: 0x5C60, symBinAddr: 0x10000DCA0, symSize: 0x10 }
  - { offsetInCU: 0x93C9, offset: 0x201D6, size: 0x8, addend: 0x0, symName: __ZNSt3__1miB7v160006IPiS1_EENS_11__wrap_iterIT_E15difference_typeERKS4_RKNS2_IT0_EE, symObjAddr: 0x7B10, symBinAddr: 0x10000E010, symSize: 0x40 }
  - { offsetInCU: 0x9415, offset: 0x20222, size: 0x8, addend: 0x0, symName: __ZNSt3__1ltB7v160006IPiEEbRKNS_11__wrap_iterIT_EES6_, symObjAddr: 0x7BA0, symBinAddr: 0x10000E0A0, symSize: 0x40 }
  - { offsetInCU: 0x9458, offset: 0x20265, size: 0x8, addend: 0x0, symName: __ZNSt3__113__countl_zeroB7v160006ImEEiT_, symObjAddr: 0x7F00, symBinAddr: 0x10000E400, symSize: 0x40 }
  - { offsetInCU: 0x948D, offset: 0x2029A, size: 0x8, addend: 0x0, symName: __ZNSt3__112__libcpp_clzB7v160006Em, symObjAddr: 0x84A0, symBinAddr: 0x10000E7F0, symSize: 0x20 }
  - { offsetInCU: 0x94B9, offset: 0x202C6, size: 0x8, addend: 0x0, symName: __ZNSt3__19iter_swapB7v160006INS_11__wrap_iterIPiEES3_EEvT_T0_, symObjAddr: 0x84F0, symBinAddr: 0x10000E840, symSize: 0x40 }
  - { offsetInCU: 0x9501, offset: 0x2030E, size: 0x8, addend: 0x0, symName: __ZNSt3__14swapB7v160006IiEEvRT_S2_, symObjAddr: 0x8530, symBinAddr: 0x10000E880, symSize: 0x30 }
  - { offsetInCU: 0xA0D5, offset: 0x20EE2, size: 0x8, addend: 0x0, symName: _PokemonStats, symObjAddr: 0x5A948, symBinAddr: 0x100030020, symSize: 0x0 }
  - { offsetInCU: 0xA2BE, offset: 0x210CB, size: 0x8, addend: 0x0, symName: _Pos, symObjAddr: 0x5A960, symBinAddr: 0x100030038, symSize: 0x0 }
  - { offsetInCU: 0xA508, offset: 0x21315, size: 0x8, addend: 0x0, symName: __ZNSt3__124uniform_int_distributionIlEclINS_23mersenne_twister_engineIjLm32ELm624ELm397ELm31ELj2567483615ELm11ELj4294967295ELm7ELj2636928640ELm15ELj4022730752ELm18ELj1812433253EEEEElRT_RKNS1_10param_typeE, symObjAddr: 0x7BE0, symBinAddr: 0x10000E0E0, symSize: 0x170 }
  - { offsetInCU: 0xC463, offset: 0x23270, size: 0x8, addend: 0x0, symName: __ZNSt3__16vectorINS_12basic_stringIcNS_11char_traitsIcEENS_9allocatorIcEEEENS4_IS6_EEEC1EmRKS6_, symObjAddr: 0x30, symBinAddr: 0x100009830, symSize: 0x30 }
  - { offsetInCU: 0xC4AD, offset: 0x232BA, size: 0x8, addend: 0x0, symName: __ZNSt3__16vectorINS0_INS_12basic_stringIcNS_11char_traitsIcEENS_9allocatorIcEEEENS4_IS6_EEEENS4_IS8_EEEC1EmRKS8_, symObjAddr: 0x60, symBinAddr: 0x100009860, symSize: 0x30 }
  - { offsetInCU: 0xC4F7, offset: 0x23304, size: 0x8, addend: 0x0, symName: __ZNSt3__16vectorINS_12basic_stringIcNS_11char_traitsIcEENS_9allocatorIcEEEENS4_IS6_EEED1B7v160006Ev, symObjAddr: 0x90, symBinAddr: 0x100009890, symSize: 0x20 }
  - { offsetInCU: 0xC521, offset: 0x2332E, size: 0x8, addend: 0x0, symName: __ZNSt3__16vectorINS0_INS_12basic_stringIcNS_11char_traitsIcEENS_9allocatorIcEEEENS4_IS6_EEEENS4_IS8_EEED1B7v160006Ev, symObjAddr: 0xC0, symBinAddr: 0x1000098B0, symSize: 0x20 }
  - { offsetInCU: 0xC54B, offset: 0x23358, size: 0x8, addend: 0x0, symName: __ZNSt3__16vectorIiNS_9allocatorIiEEEC1EmRKi, symObjAddr: 0xE0, symBinAddr: 0x1000098D0, symSize: 0x30 }
  - { offsetInCU: 0xC595, offset: 0x233A2, size: 0x8, addend: 0x0, symName: __ZNSt3__16vectorINS0_IiNS_9allocatorIiEEEENS1_IS3_EEEC1EmRKS3_, symObjAddr: 0x110, symBinAddr: 0x100009900, symSize: 0x30 }
  - { offsetInCU: 0xC5DF, offset: 0x233EC, size: 0x8, addend: 0x0, symName: __ZNSt3__16vectorINS0_IiNS_9allocatorIiEEEENS1_IS3_EEED1B7v160006Ev, symObjAddr: 0x160, symBinAddr: 0x100009930, symSize: 0x20 }
  - { offsetInCU: 0xC608, offset: 0x23415, size: 0x8, addend: 0x0, symName: __Z7setDataRNSt3__114basic_ifstreamIcNS_11char_traitsIcEEEE, symObjAddr: 0x180, symBinAddr: 0x100009950, symSize: 0x150 }
  - { offsetInCU: 0xC69A, offset: 0x234A7, size: 0x8, addend: 0x0, symName: __ZNSt3__16vectorINS0_INS_12basic_stringIcNS_11char_traitsIcEENS_9allocatorIcEEEENS4_IS6_EEEENS4_IS8_EEEixB7v160006Em, symObjAddr: 0x5F0, symBinAddr: 0x100009DA0, symSize: 0x20 }
  - { offsetInCU: 0xC6D1, offset: 0x234DE, size: 0x8, addend: 0x0, symName: __ZNSt3__16vectorINS0_IiNS_9allocatorIiEEEENS1_IS3_EEEixB7v160006Em, symObjAddr: 0x630, symBinAddr: 0x100009DC0, symSize: 0x20 }
  - { offsetInCU: 0xC707, offset: 0x23514, size: 0x8, addend: 0x0, symName: __Z13choosePokemoni, symObjAddr: 0x670, symBinAddr: 0x100009DE0, symSize: 0x80 }
  - { offsetInCU: 0xC733, offset: 0x23540, size: 0x8, addend: 0x0, symName: __Z6setPosi, symObjAddr: 0x780, symBinAddr: 0x100009E60, symSize: 0x230 }
  - { offsetInCU: 0xC7C7, offset: 0x235D4, size: 0x8, addend: 0x0, symName: __ZNSt3__16vectorIiNS_9allocatorIiEEE5beginB7v160006Ev, symObjAddr: 0xAA0, symBinAddr: 0x10000A0D0, symSize: 0x30 }
  - { offsetInCU: 0xC7EF, offset: 0x235FC, size: 0x8, addend: 0x0, symName: __ZNSt3__16vectorIiNS_9allocatorIiEEE3endB7v160006Ev, symObjAddr: 0xAD0, symBinAddr: 0x10000A100, symSize: 0x30 }
  - { offsetInCU: 0xC816, offset: 0x23623, size: 0x8, addend: 0x0, symName: __Z12checkPokemonNSt3__16vectorIiNS_9allocatorIiEEEE, symObjAddr: 0xB00, symBinAddr: 0x10000A130, symSize: 0x110 }
  - { offsetInCU: 0xC865, offset: 0x23672, size: 0x8, addend: 0x0, symName: __ZNSt3__16vectorINS_12basic_stringIcNS_11char_traitsIcEENS_9allocatorIcEEEENS4_IS6_EEEC2EmRKS6_, symObjAddr: 0x12C0, symBinAddr: 0x10000A240, symSize: 0xF0 }
  - { offsetInCU: 0xC8C9, offset: 0x236D6, size: 0x8, addend: 0x0, symName: __ZNSt3__117__compressed_pairIPNS_12basic_stringIcNS_11char_traitsIcEENS_9allocatorIcEEEENS4_IS6_EEEC1B7v160006IDnNS_18__default_init_tagEEEOT_OT0_, symObjAddr: 0x13B0, symBinAddr: 0x10000A330, symSize: 0x30 }
  - { offsetInCU: 0xC921, offset: 0x2372E, size: 0x8, addend: 0x0, symName: __ZNSt3__16vectorINS_12basic_stringIcNS_11char_traitsIcEENS_9allocatorIcEEEENS4_IS6_EEE16__destroy_vectorC1ERS8_, symObjAddr: 0x1420, symBinAddr: 0x10000A3A0, symSize: 0x30 }
  - { offsetInCU: 0xC95A, offset: 0x23767, size: 0x8, addend: 0x0, symName: __ZNSt3__16vectorINS_12basic_stringIcNS_11char_traitsIcEENS_9allocatorIcEEEENS4_IS6_EEE11__vallocateB7v160006Em, symObjAddr: 0x1460, symBinAddr: 0x10000A3E0, symSize: 0xA0 }
  - { offsetInCU: 0xC99E, offset: 0x237AB, size: 0x8, addend: 0x0, symName: __ZNSt3__16vectorINS_12basic_stringIcNS_11char_traitsIcEENS_9allocatorIcEEEENS4_IS6_EEE18__construct_at_endEmRKS6_, symObjAddr: 0x1500, symBinAddr: 0x10000A480, symSize: 0xD0 }
  - { offsetInCU: 0xCA1F, offset: 0x2382C, size: 0x8, addend: 0x0, symName: __ZNSt3__128__exception_guard_exceptionsINS_6vectorINS_12basic_stringIcNS_11char_traitsIcEENS_9allocatorIcEEEENS5_IS7_EEE16__destroy_vectorEE10__completeB7v160006Ev, symObjAddr: 0x15D0, symBinAddr: 0x10000A550, symSize: 0x20 }
  - { offsetInCU: 0xCA45, offset: 0x23852, size: 0x8, addend: 0x0, symName: __ZNSt3__128__exception_guard_exceptionsINS_6vectorINS_12basic_stringIcNS_11char_traitsIcEENS_9allocatorIcEEEENS5_IS7_EEE16__destroy_vectorEED1B7v160006Ev, symObjAddr: 0x15F0, symBinAddr: 0x10000A570, symSize: 0x20 }
  - { offsetInCU: 0xCA6F, offset: 0x2387C, size: 0x8, addend: 0x0, symName: __ZNSt3__117__compressed_pairIPNS_12basic_stringIcNS_11char_traitsIcEENS_9allocatorIcEEEENS4_IS6_EEEC2B7v160006IDnNS_18__default_init_tagEEEOT_OT0_, symObjAddr: 0x1610, symBinAddr: 0x10000A590, symSize: 0x40 }
  - { offsetInCU: 0xCAC7, offset: 0x238D4, size: 0x8, addend: 0x0, symName: __ZNSt3__122__compressed_pair_elemIPNS_12basic_stringIcNS_11char_traitsIcEENS_9allocatorIcEEEELi0ELb0EEC2B7v160006IDnvEEOT_, symObjAddr: 0x1650, symBinAddr: 0x10000A5D0, symSize: 0x20 }
  - { offsetInCU: 0xCB09, offset: 0x23916, size: 0x8, addend: 0x0, symName: __ZNSt3__122__compressed_pair_elemINS_9allocatorINS_12basic_stringIcNS_11char_traitsIcEENS1_IcEEEEEELi1ELb1EEC2B7v160006ENS_18__default_init_tagE, symObjAddr: 0x1670, symBinAddr: 0x10000A5F0, symSize: 0x20 }
  - { offsetInCU: 0xCB3E, offset: 0x2394B, size: 0x8, addend: 0x0, symName: __ZNSt3__19allocatorINS_12basic_stringIcNS_11char_traitsIcEENS0_IcEEEEEC2B7v160006Ev, symObjAddr: 0x1690, symBinAddr: 0x10000A610, symSize: 0x20 }
  - { offsetInCU: 0xCB68, offset: 0x23975, size: 0x8, addend: 0x0, symName: __ZNSt3__116__non_trivial_ifILb1ENS_9allocatorINS_12basic_stringIcNS_11char_traitsIcEENS1_IcEEEEEEEC2B7v160006Ev, symObjAddr: 0x16B0, symBinAddr: 0x10000A630, symSize: 0x10 }
  - { offsetInCU: 0xCB92, offset: 0x2399F, size: 0x8, addend: 0x0, symName: __ZNSt3__128__exception_guard_exceptionsINS_6vectorINS_12basic_stringIcNS_11char_traitsIcEENS_9allocatorIcEEEENS5_IS7_EEE16__destroy_vectorEEC1B7v160006ESA_, symObjAddr: 0x16C0, symBinAddr: 0x10000A640, symSize: 0x30 }
  - { offsetInCU: 0xCBCA, offset: 0x239D7, size: 0x8, addend: 0x0, symName: __ZNSt3__128__exception_guard_exceptionsINS_6vectorINS_12basic_stringIcNS_11char_traitsIcEENS_9allocatorIcEEEENS5_IS7_EEE16__destroy_vectorEEC2B7v160006ESA_, symObjAddr: 0x16F0, symBinAddr: 0x10000A670, symSize: 0x20 }
  - { offsetInCU: 0xCC02, offset: 0x23A0F, size: 0x8, addend: 0x0, symName: __ZNSt3__16vectorINS_12basic_stringIcNS_11char_traitsIcEENS_9allocatorIcEEEENS4_IS6_EEE16__destroy_vectorC2ERS8_, symObjAddr: 0x1710, symBinAddr: 0x10000A690, symSize: 0x20 }
  - { offsetInCU: 0xCC3B, offset: 0x23A48, size: 0x8, addend: 0x0, symName: __ZNKSt3__16vectorINS_12basic_stringIcNS_11char_traitsIcEENS_9allocatorIcEEEENS4_IS6_EEE8max_sizeEv, symObjAddr: 0x1730, symBinAddr: 0x10000A6B0, symSize: 0x70 }
  - { offsetInCU: 0xCC63, offset: 0x23A70, size: 0x8, addend: 0x0, symName: __ZNKSt3__16vectorINS_12basic_stringIcNS_11char_traitsIcEENS_9allocatorIcEEEENS4_IS6_EEE20__throw_length_errorB7v160006Ev, symObjAddr: 0x17A0, symBinAddr: 0x10000A720, symSize: 0x20 }
  - { offsetInCU: 0xCC89, offset: 0x23A96, size: 0x8, addend: 0x0, symName: __ZNSt3__16vectorINS_12basic_stringIcNS_11char_traitsIcEENS_9allocatorIcEEEENS4_IS6_EEE7__allocB7v160006Ev, symObjAddr: 0x1800, symBinAddr: 0x10000A780, symSize: 0x20 }
  - { offsetInCU: 0xCCAF, offset: 0x23ABC, size: 0x8, addend: 0x0, symName: __ZNSt3__16vectorINS_12basic_stringIcNS_11char_traitsIcEENS_9allocatorIcEEEENS4_IS6_EEE9__end_capB7v160006Ev, symObjAddr: 0x1820, symBinAddr: 0x10000A7A0, symSize: 0x20 }
  - { offsetInCU: 0xCCD5, offset: 0x23AE2, size: 0x8, addend: 0x0, symName: __ZNKSt3__16vectorINS_12basic_stringIcNS_11char_traitsIcEENS_9allocatorIcEEEENS4_IS6_EEE14__annotate_newB7v160006Em, symObjAddr: 0x1840, symBinAddr: 0x10000A7C0, symSize: 0xA0 }
  - { offsetInCU: 0xCD14, offset: 0x23B21, size: 0x8, addend: 0x0, symName: __ZNSt3__116allocator_traitsINS_9allocatorINS_12basic_stringIcNS_11char_traitsIcEENS1_IcEEEEEEE8max_sizeB7v160006IS7_vEEmRKS7_, symObjAddr: 0x1910, symBinAddr: 0x10000A860, symSize: 0x20 }
  - { offsetInCU: 0xCD42, offset: 0x23B4F, size: 0x8, addend: 0x0, symName: __ZNKSt3__16vectorINS_12basic_stringIcNS_11char_traitsIcEENS_9allocatorIcEEEENS4_IS6_EEE7__allocB7v160006Ev, symObjAddr: 0x1930, symBinAddr: 0x10000A880, symSize: 0x20 }
  - { offsetInCU: 0xCD68, offset: 0x23B75, size: 0x8, addend: 0x0, symName: __ZNKSt3__19allocatorINS_12basic_stringIcNS_11char_traitsIcEENS0_IcEEEEE8max_sizeB7v160006Ev, symObjAddr: 0x19E0, symBinAddr: 0x10000A8A0, symSize: 0x20 }
  - { offsetInCU: 0xCD8E, offset: 0x23B9B, size: 0x8, addend: 0x0, symName: __ZNKSt3__117__compressed_pairIPNS_12basic_stringIcNS_11char_traitsIcEENS_9allocatorIcEEEENS4_IS6_EEE6secondB7v160006Ev, symObjAddr: 0x1A00, symBinAddr: 0x10000A8C0, symSize: 0x20 }
  - { offsetInCU: 0xCDB4, offset: 0x23BC1, size: 0x8, addend: 0x0, symName: __ZNKSt3__122__compressed_pair_elemINS_9allocatorINS_12basic_stringIcNS_11char_traitsIcEENS1_IcEEEEEELi1ELb1EE5__getB7v160006Ev, symObjAddr: 0x1A20, symBinAddr: 0x10000A8E0, symSize: 0x10 }
  - { offsetInCU: 0xCDDA, offset: 0x23BE7, size: 0x8, addend: 0x0, symName: __ZNSt3__19allocatorINS_12basic_stringIcNS_11char_traitsIcEENS0_IcEEEEE8allocateB7v160006Em, symObjAddr: 0x1B20, symBinAddr: 0x10000A8F0, symSize: 0x80 }
  - { offsetInCU: 0xCE0E, offset: 0x23C1B, size: 0x8, addend: 0x0, symName: __ZNSt3__117__compressed_pairIPNS_12basic_stringIcNS_11char_traitsIcEENS_9allocatorIcEEEENS4_IS6_EEE6secondB7v160006Ev, symObjAddr: 0x1C20, symBinAddr: 0x10000A970, symSize: 0x20 }
  - { offsetInCU: 0xCE34, offset: 0x23C41, size: 0x8, addend: 0x0, symName: __ZNSt3__122__compressed_pair_elemINS_9allocatorINS_12basic_stringIcNS_11char_traitsIcEENS1_IcEEEEEELi1ELb1EE5__getB7v160006Ev, symObjAddr: 0x1C40, symBinAddr: 0x10000A990, symSize: 0x10 }
  - { offsetInCU: 0xCE5A, offset: 0x23C67, size: 0x8, addend: 0x0, symName: __ZNSt3__117__compressed_pairIPNS_12basic_stringIcNS_11char_traitsIcEENS_9allocatorIcEEEENS4_IS6_EEE5firstB7v160006Ev, symObjAddr: 0x1C50, symBinAddr: 0x10000A9A0, symSize: 0x20 }
  - { offsetInCU: 0xCE80, offset: 0x23C8D, size: 0x8, addend: 0x0, symName: __ZNSt3__122__compressed_pair_elemIPNS_12basic_stringIcNS_11char_traitsIcEENS_9allocatorIcEEEELi0ELb0EE5__getB7v160006Ev, symObjAddr: 0x1C70, symBinAddr: 0x10000A9C0, symSize: 0x10 }
  - { offsetInCU: 0xCEA6, offset: 0x23CB3, size: 0x8, addend: 0x0, symName: __ZNKSt3__16vectorINS_12basic_stringIcNS_11char_traitsIcEENS_9allocatorIcEEEENS4_IS6_EEE31__annotate_contiguous_containerB7v160006EPKvSA_SA_SA_, symObjAddr: 0x1C80, symBinAddr: 0x10000A9D0, symSize: 0x20 }
  - { offsetInCU: 0xCEF8, offset: 0x23D05, size: 0x8, addend: 0x0, symName: __ZNKSt3__16vectorINS_12basic_stringIcNS_11char_traitsIcEENS_9allocatorIcEEEENS4_IS6_EEE4dataB7v160006Ev, symObjAddr: 0x1CA0, symBinAddr: 0x10000A9F0, symSize: 0x20 }
  - { offsetInCU: 0xCF1E, offset: 0x23D2B, size: 0x8, addend: 0x0, symName: __ZNKSt3__16vectorINS_12basic_stringIcNS_11char_traitsIcEENS_9allocatorIcEEEENS4_IS6_EEE8capacityB7v160006Ev, symObjAddr: 0x1CC0, symBinAddr: 0x10000AA10, symSize: 0x40 }
  - { offsetInCU: 0xCF44, offset: 0x23D51, size: 0x8, addend: 0x0, symName: __ZNKSt3__16vectorINS_12basic_stringIcNS_11char_traitsIcEENS_9allocatorIcEEEENS4_IS6_EEE9__end_capB7v160006Ev, symObjAddr: 0x1D10, symBinAddr: 0x10000AA60, symSize: 0x20 }
  - { offsetInCU: 0xCF6A, offset: 0x23D77, size: 0x8, addend: 0x0, symName: __ZNKSt3__117__compressed_pairIPNS_12basic_stringIcNS_11char_traitsIcEENS_9allocatorIcEEEENS4_IS6_EEE5firstB7v160006Ev, symObjAddr: 0x1D30, symBinAddr: 0x10000AA80, symSize: 0x20 }
  - { offsetInCU: 0xCF90, offset: 0x23D9D, size: 0x8, addend: 0x0, symName: __ZNKSt3__122__compressed_pair_elemIPNS_12basic_stringIcNS_11char_traitsIcEENS_9allocatorIcEEEELi0ELb0EE5__getB7v160006Ev, symObjAddr: 0x1D50, symBinAddr: 0x10000AAA0, symSize: 0x10 }
  - { offsetInCU: 0xCFCF, offset: 0x23DDC, size: 0x8, addend: 0x0, symName: __ZNSt3__16vectorINS_12basic_stringIcNS_11char_traitsIcEENS_9allocatorIcEEEENS4_IS6_EEE21_ConstructTransactionC1B7v160006ERS8_m, symObjAddr: 0x1D60, symBinAddr: 0x10000AAB0, symSize: 0x30 }
  - { offsetInCU: 0xD017, offset: 0x23E24, size: 0x8, addend: 0x0, symName: __ZNSt3__116allocator_traitsINS_9allocatorINS_12basic_stringIcNS_11char_traitsIcEENS1_IcEEEEEEE9constructB7v160006IS6_JRKS6_EvEEvRS7_PT_DpOT0_, symObjAddr: 0x1D90, symBinAddr: 0x10000AAE0, symSize: 0x30 }
  - { offsetInCU: 0xD06E, offset: 0x23E7B, size: 0x8, addend: 0x0, symName: __ZNSt3__16vectorINS_12basic_stringIcNS_11char_traitsIcEENS_9allocatorIcEEEENS4_IS6_EEE21_ConstructTransactionD1B7v160006Ev, symObjAddr: 0x1DC0, symBinAddr: 0x10000AB10, symSize: 0x20 }
  - { offsetInCU: 0xD098, offset: 0x23EA5, size: 0x8, addend: 0x0, symName: __ZNSt3__16vectorINS_12basic_stringIcNS_11char_traitsIcEENS_9allocatorIcEEEENS4_IS6_EEE21_ConstructTransactionC2B7v160006ERS8_m, symObjAddr: 0x1DE0, symBinAddr: 0x10000AB30, symSize: 0x40 }
  - { offsetInCU: 0xD0E0, offset: 0x23EED, size: 0x8, addend: 0x0, symName: __ZNSt3__19allocatorINS_12basic_stringIcNS_11char_traitsIcEENS0_IcEEEEE9constructB7v160006IS5_JRKS5_EEEvPT_DpOT0_, symObjAddr: 0x1E20, symBinAddr: 0x10000AB70, symSize: 0x30 }
  - { offsetInCU: 0xD136, offset: 0x23F43, size: 0x8, addend: 0x0, symName: __ZNSt3__16vectorINS_12basic_stringIcNS_11char_traitsIcEENS_9allocatorIcEEEENS4_IS6_EEE21_ConstructTransactionD2B7v160006Ev, symObjAddr: 0x1E50, symBinAddr: 0x10000ABA0, symSize: 0x20 }
  - { offsetInCU: 0xD160, offset: 0x23F6D, size: 0x8, addend: 0x0, symName: __ZNSt3__128__exception_guard_exceptionsINS_6vectorINS_12basic_stringIcNS_11char_traitsIcEENS_9allocatorIcEEEENS5_IS7_EEE16__destroy_vectorEED2B7v160006Ev, symObjAddr: 0x1E70, symBinAddr: 0x10000ABC0, symSize: 0x30 }
  - { offsetInCU: 0xD18A, offset: 0x23F97, size: 0x8, addend: 0x0, symName: __ZNSt3__16vectorINS_12basic_stringIcNS_11char_traitsIcEENS_9allocatorIcEEEENS4_IS6_EEE16__destroy_vectorclB7v160006Ev, symObjAddr: 0x1EA0, symBinAddr: 0x10000ABF0, symSize: 0x90 }
  - { offsetInCU: 0xD1B0, offset: 0x23FBD, size: 0x8, addend: 0x0, symName: __ZNKSt3__16vectorINS_12basic_stringIcNS_11char_traitsIcEENS_9allocatorIcEEEENS4_IS6_EEE17__annotate_deleteB7v160006Ev, symObjAddr: 0x1F30, symBinAddr: 0x10000AC80, symSize: 0xB0 }
  - { offsetInCU: 0xD1D6, offset: 0x23FE3, size: 0x8, addend: 0x0, symName: __ZNSt3__16vectorINS_12basic_stringIcNS_11char_traitsIcEENS_9allocatorIcEEEENS4_IS6_EEE7__clearB7v160006Ev, symObjAddr: 0x1FF0, symBinAddr: 0x10000AD40, symSize: 0x20 }
  - { offsetInCU: 0xD1FC, offset: 0x24009, size: 0x8, addend: 0x0, symName: __ZNSt3__116allocator_traitsINS_9allocatorINS_12basic_stringIcNS_11char_traitsIcEENS1_IcEEEEEEE10deallocateB7v160006ERS7_PS6_m, symObjAddr: 0x2010, symBinAddr: 0x10000AD60, symSize: 0x30 }
  - { offsetInCU: 0xD23E, offset: 0x2404B, size: 0x8, addend: 0x0, symName: __ZNKSt3__16vectorINS_12basic_stringIcNS_11char_traitsIcEENS_9allocatorIcEEEENS4_IS6_EEE4sizeB7v160006Ev, symObjAddr: 0x2040, symBinAddr: 0x10000AD90, symSize: 0x30 }
  - { offsetInCU: 0xD264, offset: 0x24071, size: 0x8, addend: 0x0, symName: __ZNSt3__16vectorINS_12basic_stringIcNS_11char_traitsIcEENS_9allocatorIcEEEENS4_IS6_EEE22__base_destruct_at_endB7v160006EPS6_, symObjAddr: 0x2070, symBinAddr: 0x10000ADC0, symSize: 0x90 }
  - { offsetInCU: 0xD2A8, offset: 0x240B5, size: 0x8, addend: 0x0, symName: __ZNSt3__116allocator_traitsINS_9allocatorINS_12basic_stringIcNS_11char_traitsIcEENS1_IcEEEEEEE7destroyB7v160006IS6_vEEvRS7_PT_, symObjAddr: 0x2100, symBinAddr: 0x10000AE50, symSize: 0x30 }
  - { offsetInCU: 0xD2E5, offset: 0x240F2, size: 0x8, addend: 0x0, symName: __ZNSt3__19allocatorINS_12basic_stringIcNS_11char_traitsIcEENS0_IcEEEEE7destroyB7v160006EPS5_, symObjAddr: 0x2130, symBinAddr: 0x10000AE80, symSize: 0x20 }
  - { offsetInCU: 0xD319, offset: 0x24126, size: 0x8, addend: 0x0, symName: __ZNSt3__19allocatorINS_12basic_stringIcNS_11char_traitsIcEENS0_IcEEEEE10deallocateB7v160006EPS5_m, symObjAddr: 0x2150, symBinAddr: 0x10000AEA0, symSize: 0x80 }
  - { offsetInCU: 0xD35B, offset: 0x24168, size: 0x8, addend: 0x0, symName: __ZNSt3__16vectorINS_12basic_stringIcNS_11char_traitsIcEENS_9allocatorIcEEEENS4_IS6_EEED2B7v160006Ev, symObjAddr: 0x21D0, symBinAddr: 0x10000AF20, symSize: 0x30 }
  - { offsetInCU: 0xD385, offset: 0x24192, size: 0x8, addend: 0x0, symName: __ZNSt3__16vectorINS0_INS_12basic_stringIcNS_11char_traitsIcEENS_9allocatorIcEEEENS4_IS6_EEEENS4_IS8_EEEC2EmRKS8_, symObjAddr: 0x2200, symBinAddr: 0x10000AF50, symSize: 0xF0 }
  - { offsetInCU: 0xD3E4, offset: 0x241F1, size: 0x8, addend: 0x0, symName: __ZNSt3__117__compressed_pairIPNS_6vectorINS_12basic_stringIcNS_11char_traitsIcEENS_9allocatorIcEEEENS5_IS7_EEEENS5_IS9_EEEC1B7v160006IDnNS_18__default_init_tagEEEOT_OT0_, symObjAddr: 0x22F0, symBinAddr: 0x10000B040, symSize: 0x30 }
  - { offsetInCU: 0xD43C, offset: 0x24249, size: 0x8, addend: 0x0, symName: __ZNSt3__16vectorINS0_INS_12basic_stringIcNS_11char_traitsIcEENS_9allocatorIcEEEENS4_IS6_EEEENS4_IS8_EEE16__destroy_vectorC1ERSA_, symObjAddr: 0x2360, symBinAddr: 0x10000B0B0, symSize: 0x30 }
  - { offsetInCU: 0xD475, offset: 0x24282, size: 0x8, addend: 0x0, symName: __ZNSt3__16vectorINS0_INS_12basic_stringIcNS_11char_traitsIcEENS_9allocatorIcEEEENS4_IS6_EEEENS4_IS8_EEE11__vallocateB7v160006Em, symObjAddr: 0x23A0, symBinAddr: 0x10000B0F0, symSize: 0xA0 }
  - { offsetInCU: 0xD4B9, offset: 0x242C6, size: 0x8, addend: 0x0, symName: __ZNSt3__16vectorINS0_INS_12basic_stringIcNS_11char_traitsIcEENS_9allocatorIcEEEENS4_IS6_EEEENS4_IS8_EEE18__construct_at_endEmRKS8_, symObjAddr: 0x2440, symBinAddr: 0x10000B190, symSize: 0xD0 }
  - { offsetInCU: 0xD53A, offset: 0x24347, size: 0x8, addend: 0x0, symName: __ZNSt3__128__exception_guard_exceptionsINS_6vectorINS1_INS_12basic_stringIcNS_11char_traitsIcEENS_9allocatorIcEEEENS5_IS7_EEEENS5_IS9_EEE16__destroy_vectorEE10__completeB7v160006Ev, symObjAddr: 0x2510, symBinAddr: 0x10000B260, symSize: 0x20 }
  - { offsetInCU: 0xD560, offset: 0x2436D, size: 0x8, addend: 0x0, symName: __ZNSt3__128__exception_guard_exceptionsINS_6vectorINS1_INS_12basic_stringIcNS_11char_traitsIcEENS_9allocatorIcEEEENS5_IS7_EEEENS5_IS9_EEE16__destroy_vectorEED1B7v160006Ev, symObjAddr: 0x2530, symBinAddr: 0x10000B280, symSize: 0x20 }
  - { offsetInCU: 0xD58A, offset: 0x24397, size: 0x8, addend: 0x0, symName: __ZNSt3__117__compressed_pairIPNS_6vectorINS_12basic_stringIcNS_11char_traitsIcEENS_9allocatorIcEEEENS5_IS7_EEEENS5_IS9_EEEC2B7v160006IDnNS_18__default_init_tagEEEOT_OT0_, symObjAddr: 0x2550, symBinAddr: 0x10000B2A0, symSize: 0x40 }
  - { offsetInCU: 0xD5E2, offset: 0x243EF, size: 0x8, addend: 0x0, symName: __ZNSt3__122__compressed_pair_elemIPNS_6vectorINS_12basic_stringIcNS_11char_traitsIcEENS_9allocatorIcEEEENS5_IS7_EEEELi0ELb0EEC2B7v160006IDnvEEOT_, symObjAddr: 0x2590, symBinAddr: 0x10000B2E0, symSize: 0x20 }
  - { offsetInCU: 0xD624, offset: 0x24431, size: 0x8, addend: 0x0, symName: __ZNSt3__122__compressed_pair_elemINS_9allocatorINS_6vectorINS_12basic_stringIcNS_11char_traitsIcEENS1_IcEEEENS1_IS7_EEEEEELi1ELb1EEC2B7v160006ENS_18__default_init_tagE, symObjAddr: 0x25B0, symBinAddr: 0x10000B300, symSize: 0x20 }
  - { offsetInCU: 0xD659, offset: 0x24466, size: 0x8, addend: 0x0, symName: __ZNSt3__19allocatorINS_6vectorINS_12basic_stringIcNS_11char_traitsIcEENS0_IcEEEENS0_IS6_EEEEEC2B7v160006Ev, symObjAddr: 0x25D0, symBinAddr: 0x10000B320, symSize: 0x20 }
  - { offsetInCU: 0xD683, offset: 0x24490, size: 0x8, addend: 0x0, symName: __ZNSt3__116__non_trivial_ifILb1ENS_9allocatorINS_6vectorINS_12basic_stringIcNS_11char_traitsIcEENS1_IcEEEENS1_IS7_EEEEEEEC2B7v160006Ev, symObjAddr: 0x25F0, symBinAddr: 0x10000B340, symSize: 0x10 }
  - { offsetInCU: 0xD6AD, offset: 0x244BA, size: 0x8, addend: 0x0, symName: __ZNSt3__128__exception_guard_exceptionsINS_6vectorINS1_INS_12basic_stringIcNS_11char_traitsIcEENS_9allocatorIcEEEENS5_IS7_EEEENS5_IS9_EEE16__destroy_vectorEEC1B7v160006ESC_, symObjAddr: 0x2600, symBinAddr: 0x10000B350, symSize: 0x30 }
  - { offsetInCU: 0xD6E5, offset: 0x244F2, size: 0x8, addend: 0x0, symName: __ZNSt3__128__exception_guard_exceptionsINS_6vectorINS1_INS_12basic_stringIcNS_11char_traitsIcEENS_9allocatorIcEEEENS5_IS7_EEEENS5_IS9_EEE16__destroy_vectorEEC2B7v160006ESC_, symObjAddr: 0x2630, symBinAddr: 0x10000B380, symSize: 0x20 }
  - { offsetInCU: 0xD71D, offset: 0x2452A, size: 0x8, addend: 0x0, symName: __ZNSt3__16vectorINS0_INS_12basic_stringIcNS_11char_traitsIcEENS_9allocatorIcEEEENS4_IS6_EEEENS4_IS8_EEE16__destroy_vectorC2ERSA_, symObjAddr: 0x2650, symBinAddr: 0x10000B3A0, symSize: 0x20 }
  - { offsetInCU: 0xD756, offset: 0x24563, size: 0x8, addend: 0x0, symName: __ZNKSt3__16vectorINS0_INS_12basic_stringIcNS_11char_traitsIcEENS_9allocatorIcEEEENS4_IS6_EEEENS4_IS8_EEE8max_sizeEv, symObjAddr: 0x2670, symBinAddr: 0x10000B3C0, symSize: 0x70 }
  - { offsetInCU: 0xD77E, offset: 0x2458B, size: 0x8, addend: 0x0, symName: __ZNKSt3__16vectorINS0_INS_12basic_stringIcNS_11char_traitsIcEENS_9allocatorIcEEEENS4_IS6_EEEENS4_IS8_EEE20__throw_length_errorB7v160006Ev, symObjAddr: 0x26E0, symBinAddr: 0x10000B430, symSize: 0x20 }
  - { offsetInCU: 0xD7A4, offset: 0x245B1, size: 0x8, addend: 0x0, symName: __ZNSt3__16vectorINS0_INS_12basic_stringIcNS_11char_traitsIcEENS_9allocatorIcEEEENS4_IS6_EEEENS4_IS8_EEE7__allocB7v160006Ev, symObjAddr: 0x2740, symBinAddr: 0x10000B490, symSize: 0x20 }
  - { offsetInCU: 0xD7CA, offset: 0x245D7, size: 0x8, addend: 0x0, symName: __ZNSt3__16vectorINS0_INS_12basic_stringIcNS_11char_traitsIcEENS_9allocatorIcEEEENS4_IS6_EEEENS4_IS8_EEE9__end_capB7v160006Ev, symObjAddr: 0x2760, symBinAddr: 0x10000B4B0, symSize: 0x20 }
  - { offsetInCU: 0xD7F0, offset: 0x245FD, size: 0x8, addend: 0x0, symName: __ZNKSt3__16vectorINS0_INS_12basic_stringIcNS_11char_traitsIcEENS_9allocatorIcEEEENS4_IS6_EEEENS4_IS8_EEE14__annotate_newB7v160006Em, symObjAddr: 0x2780, symBinAddr: 0x10000B4D0, symSize: 0xA0 }
  - { offsetInCU: 0xD82F, offset: 0x2463C, size: 0x8, addend: 0x0, symName: __ZNSt3__116allocator_traitsINS_9allocatorINS_6vectorINS_12basic_stringIcNS_11char_traitsIcEENS1_IcEEEENS1_IS7_EEEEEEE8max_sizeB7v160006ISA_vEEmRKSA_, symObjAddr: 0x2820, symBinAddr: 0x10000B570, symSize: 0x20 }
  - { offsetInCU: 0xD85D, offset: 0x2466A, size: 0x8, addend: 0x0, symName: __ZNKSt3__16vectorINS0_INS_12basic_stringIcNS_11char_traitsIcEENS_9allocatorIcEEEENS4_IS6_EEEENS4_IS8_EEE7__allocB7v160006Ev, symObjAddr: 0x2840, symBinAddr: 0x10000B590, symSize: 0x20 }
  - { offsetInCU: 0xD883, offset: 0x24690, size: 0x8, addend: 0x0, symName: __ZNKSt3__19allocatorINS_6vectorINS_12basic_stringIcNS_11char_traitsIcEENS0_IcEEEENS0_IS6_EEEEE8max_sizeB7v160006Ev, symObjAddr: 0x2860, symBinAddr: 0x10000B5B0, symSize: 0x20 }
  - { offsetInCU: 0xD8A9, offset: 0x246B6, size: 0x8, addend: 0x0, symName: __ZNKSt3__117__compressed_pairIPNS_6vectorINS_12basic_stringIcNS_11char_traitsIcEENS_9allocatorIcEEEENS5_IS7_EEEENS5_IS9_EEE6secondB7v160006Ev, symObjAddr: 0x2880, symBinAddr: 0x10000B5D0, symSize: 0x20 }
  - { offsetInCU: 0xD8CF, offset: 0x246DC, size: 0x8, addend: 0x0, symName: __ZNKSt3__122__compressed_pair_elemINS_9allocatorINS_6vectorINS_12basic_stringIcNS_11char_traitsIcEENS1_IcEEEENS1_IS7_EEEEEELi1ELb1EE5__getB7v160006Ev, symObjAddr: 0x28A0, symBinAddr: 0x10000B5F0, symSize: 0x10 }
  - { offsetInCU: 0xD8F5, offset: 0x24702, size: 0x8, addend: 0x0, symName: __ZNSt3__19allocatorINS_6vectorINS_12basic_stringIcNS_11char_traitsIcEENS0_IcEEEENS0_IS6_EEEEE8allocateB7v160006Em, symObjAddr: 0x28B0, symBinAddr: 0x10000B600, symSize: 0x80 }
  - { offsetInCU: 0xD929, offset: 0x24736, size: 0x8, addend: 0x0, symName: __ZNSt3__117__compressed_pairIPNS_6vectorINS_12basic_stringIcNS_11char_traitsIcEENS_9allocatorIcEEEENS5_IS7_EEEENS5_IS9_EEE6secondB7v160006Ev, symObjAddr: 0x2930, symBinAddr: 0x10000B680, symSize: 0x20 }
  - { offsetInCU: 0xD94F, offset: 0x2475C, size: 0x8, addend: 0x0, symName: __ZNSt3__122__compressed_pair_elemINS_9allocatorINS_6vectorINS_12basic_stringIcNS_11char_traitsIcEENS1_IcEEEENS1_IS7_EEEEEELi1ELb1EE5__getB7v160006Ev, symObjAddr: 0x2950, symBinAddr: 0x10000B6A0, symSize: 0x10 }
  - { offsetInCU: 0xD975, offset: 0x24782, size: 0x8, addend: 0x0, symName: __ZNSt3__117__compressed_pairIPNS_6vectorINS_12basic_stringIcNS_11char_traitsIcEENS_9allocatorIcEEEENS5_IS7_EEEENS5_IS9_EEE5firstB7v160006Ev, symObjAddr: 0x2960, symBinAddr: 0x10000B6B0, symSize: 0x20 }
  - { offsetInCU: 0xD99B, offset: 0x247A8, size: 0x8, addend: 0x0, symName: __ZNSt3__122__compressed_pair_elemIPNS_6vectorINS_12basic_stringIcNS_11char_traitsIcEENS_9allocatorIcEEEENS5_IS7_EEEELi0ELb0EE5__getB7v160006Ev, symObjAddr: 0x2980, symBinAddr: 0x10000B6D0, symSize: 0x10 }
  - { offsetInCU: 0xD9C1, offset: 0x247CE, size: 0x8, addend: 0x0, symName: __ZNKSt3__16vectorINS0_INS_12basic_stringIcNS_11char_traitsIcEENS_9allocatorIcEEEENS4_IS6_EEEENS4_IS8_EEE31__annotate_contiguous_containerB7v160006EPKvSC_SC_SC_, symObjAddr: 0x2990, symBinAddr: 0x10000B6E0, symSize: 0x20 }
  - { offsetInCU: 0xDA13, offset: 0x24820, size: 0x8, addend: 0x0, symName: __ZNKSt3__16vectorINS0_INS_12basic_stringIcNS_11char_traitsIcEENS_9allocatorIcEEEENS4_IS6_EEEENS4_IS8_EEE4dataB7v160006Ev, symObjAddr: 0x29B0, symBinAddr: 0x10000B700, symSize: 0x20 }
  - { offsetInCU: 0xDA39, offset: 0x24846, size: 0x8, addend: 0x0, symName: __ZNKSt3__16vectorINS0_INS_12basic_stringIcNS_11char_traitsIcEENS_9allocatorIcEEEENS4_IS6_EEEENS4_IS8_EEE8capacityB7v160006Ev, symObjAddr: 0x29D0, symBinAddr: 0x10000B720, symSize: 0x40 }
  - { offsetInCU: 0xDA5F, offset: 0x2486C, size: 0x8, addend: 0x0, symName: __ZNKSt3__16vectorINS0_INS_12basic_stringIcNS_11char_traitsIcEENS_9allocatorIcEEEENS4_IS6_EEEENS4_IS8_EEE9__end_capB7v160006Ev, symObjAddr: 0x2A20, symBinAddr: 0x10000B770, symSize: 0x20 }
  - { offsetInCU: 0xDA85, offset: 0x24892, size: 0x8, addend: 0x0, symName: __ZNKSt3__117__compressed_pairIPNS_6vectorINS_12basic_stringIcNS_11char_traitsIcEENS_9allocatorIcEEEENS5_IS7_EEEENS5_IS9_EEE5firstB7v160006Ev, symObjAddr: 0x2A40, symBinAddr: 0x10000B790, symSize: 0x20 }
  - { offsetInCU: 0xDAAB, offset: 0x248B8, size: 0x8, addend: 0x0, symName: __ZNKSt3__122__compressed_pair_elemIPNS_6vectorINS_12basic_stringIcNS_11char_traitsIcEENS_9allocatorIcEEEENS5_IS7_EEEELi0ELb0EE5__getB7v160006Ev, symObjAddr: 0x2A60, symBinAddr: 0x10000B7B0, symSize: 0x10 }
  - { offsetInCU: 0xDAEA, offset: 0x248F7, size: 0x8, addend: 0x0, symName: __ZNSt3__16vectorINS0_INS_12basic_stringIcNS_11char_traitsIcEENS_9allocatorIcEEEENS4_IS6_EEEENS4_IS8_EEE21_ConstructTransactionC1B7v160006ERSA_m, symObjAddr: 0x2A70, symBinAddr: 0x10000B7C0, symSize: 0x30 }
  - { offsetInCU: 0xDB32, offset: 0x2493F, size: 0x8, addend: 0x0, symName: __ZNSt3__116allocator_traitsINS_9allocatorINS_6vectorINS_12basic_stringIcNS_11char_traitsIcEENS1_IcEEEENS1_IS7_EEEEEEE9constructB7v160006IS9_JRKS9_EvEEvRSA_PT_DpOT0_, symObjAddr: 0x2AA0, symBinAddr: 0x10000B7F0, symSize: 0x30 }
  - { offsetInCU: 0xDB89, offset: 0x24996, size: 0x8, addend: 0x0, symName: __ZNSt3__16vectorINS0_INS_12basic_stringIcNS_11char_traitsIcEENS_9allocatorIcEEEENS4_IS6_EEEENS4_IS8_EEE21_ConstructTransactionD1B7v160006Ev, symObjAddr: 0x2AD0, symBinAddr: 0x10000B820, symSize: 0x20 }
  - { offsetInCU: 0xDBB3, offset: 0x249C0, size: 0x8, addend: 0x0, symName: __ZNSt3__16vectorINS0_INS_12basic_stringIcNS_11char_traitsIcEENS_9allocatorIcEEEENS4_IS6_EEEENS4_IS8_EEE21_ConstructTransactionC2B7v160006ERSA_m, symObjAddr: 0x2AF0, symBinAddr: 0x10000B840, symSize: 0x40 }
  - { offsetInCU: 0xDBFB, offset: 0x24A08, size: 0x8, addend: 0x0, symName: __ZNSt3__19allocatorINS_6vectorINS_12basic_stringIcNS_11char_traitsIcEENS0_IcEEEENS0_IS6_EEEEE9constructB7v160006IS8_JRKS8_EEEvPT_DpOT0_, symObjAddr: 0x2B30, symBinAddr: 0x10000B880, symSize: 0x30 }
  - { offsetInCU: 0xDC51, offset: 0x24A5E, size: 0x8, addend: 0x0, symName: __ZNSt3__16vectorINS_12basic_stringIcNS_11char_traitsIcEENS_9allocatorIcEEEENS4_IS6_EEEC1ERKS8_, symObjAddr: 0x2B60, symBinAddr: 0x10000B8B0, symSize: 0x30 }
  - { offsetInCU: 0xDC8C, offset: 0x24A99, size: 0x8, addend: 0x0, symName: __ZNSt3__16vectorINS_12basic_stringIcNS_11char_traitsIcEENS_9allocatorIcEEEENS4_IS6_EEEC2ERKS8_, symObjAddr: 0x2B90, symBinAddr: 0x10000B8E0, symSize: 0x110 }
  - { offsetInCU: 0xDCEC, offset: 0x24AF9, size: 0x8, addend: 0x0, symName: __ZNSt3__116allocator_traitsINS_9allocatorINS_12basic_stringIcNS_11char_traitsIcEENS1_IcEEEEEEE37select_on_container_copy_constructionB7v160006IS7_vvEES7_RKS7_, symObjAddr: 0x2CA0, symBinAddr: 0x10000B9F0, symSize: 0x10 }
  - { offsetInCU: 0xDD20, offset: 0x24B2D, size: 0x8, addend: 0x0, symName: __ZNSt3__117__compressed_pairIPNS_12basic_stringIcNS_11char_traitsIcEENS_9allocatorIcEEEENS4_IS6_EEEC1B7v160006IDnS8_EEOT_OT0_, symObjAddr: 0x2CB0, symBinAddr: 0x10000BA00, symSize: 0x30 }
  - { offsetInCU: 0xDD78, offset: 0x24B85, size: 0x8, addend: 0x0, symName: __ZNSt3__16vectorINS_12basic_stringIcNS_11char_traitsIcEENS_9allocatorIcEEEENS4_IS6_EEE18__construct_at_endIPS6_Li0EEEvT_SB_m, symObjAddr: 0x2CE0, symBinAddr: 0x10000BA30, symSize: 0xA0 }
  - { offsetInCU: 0xDDEB, offset: 0x24BF8, size: 0x8, addend: 0x0, symName: __ZNSt3__117__compressed_pairIPNS_12basic_stringIcNS_11char_traitsIcEENS_9allocatorIcEEEENS4_IS6_EEEC2B7v160006IDnS8_EEOT_OT0_, symObjAddr: 0x2D80, symBinAddr: 0x10000BAD0, symSize: 0x40 }
  - { offsetInCU: 0xDE43, offset: 0x24C50, size: 0x8, addend: 0x0, symName: __ZNSt3__122__compressed_pair_elemINS_9allocatorINS_12basic_stringIcNS_11char_traitsIcEENS1_IcEEEEEELi1ELb1EEC2B7v160006IS7_vEEOT_, symObjAddr: 0x2DC0, symBinAddr: 0x10000BB10, symSize: 0x10 }
  - { offsetInCU: 0xDE85, offset: 0x24C92, size: 0x8, addend: 0x0, symName: __ZNSt3__129_AllocatorDestroyRangeReverseINS_9allocatorINS_12basic_stringIcNS_11char_traitsIcEENS1_IcEEEEEEPS6_EC1B7v160006ERS7_RS8_SB_, symObjAddr: 0x2F40, symBinAddr: 0x10000BC90, symSize: 0x40 }
  - { offsetInCU: 0xDEDC, offset: 0x24CE9, size: 0x8, addend: 0x0, symName: __ZNSt3__116allocator_traitsINS_9allocatorINS_12basic_stringIcNS_11char_traitsIcEENS1_IcEEEEEEE9constructB7v160006IS6_JRS6_EvEEvRS7_PT_DpOT0_, symObjAddr: 0x2F80, symBinAddr: 0x10000BCD0, symSize: 0x30 }
  - { offsetInCU: 0xDF33, offset: 0x24D40, size: 0x8, addend: 0x0, symName: __ZNSt3__128__exception_guard_exceptionsINS_29_AllocatorDestroyRangeReverseINS_9allocatorINS_12basic_stringIcNS_11char_traitsIcEENS2_IcEEEEEEPS7_EEE10__completeB7v160006Ev, symObjAddr: 0x2FB0, symBinAddr: 0x10000BD00, symSize: 0x20 }
  - { offsetInCU: 0xDF59, offset: 0x24D66, size: 0x8, addend: 0x0, symName: __ZNSt3__128__exception_guard_exceptionsINS_29_AllocatorDestroyRangeReverseINS_9allocatorINS_12basic_stringIcNS_11char_traitsIcEENS2_IcEEEEEEPS7_EEED1B7v160006Ev, symObjAddr: 0x2FD0, symBinAddr: 0x10000BD20, symSize: 0x20 }
  - { offsetInCU: 0xDF83, offset: 0x24D90, size: 0x8, addend: 0x0, symName: __ZNSt3__128__exception_guard_exceptionsINS_29_AllocatorDestroyRangeReverseINS_9allocatorINS_12basic_stringIcNS_11char_traitsIcEENS2_IcEEEEEEPS7_EEEC1B7v160006ESA_, symObjAddr: 0x2FF0, symBinAddr: 0x10000BD40, symSize: 0x40 }
  - { offsetInCU: 0xDFBB, offset: 0x24DC8, size: 0x8, addend: 0x0, symName: __ZNSt3__128__exception_guard_exceptionsINS_29_AllocatorDestroyRangeReverseINS_9allocatorINS_12basic_stringIcNS_11char_traitsIcEENS2_IcEEEEEEPS7_EEEC2B7v160006ESA_, symObjAddr: 0x3030, symBinAddr: 0x10000BD80, symSize: 0x30 }
  - { offsetInCU: 0xDFF3, offset: 0x24E00, size: 0x8, addend: 0x0, symName: __ZNSt3__129_AllocatorDestroyRangeReverseINS_9allocatorINS_12basic_stringIcNS_11char_traitsIcEENS1_IcEEEEEEPS6_EC2B7v160006ERS7_RS8_SB_, symObjAddr: 0x3060, symBinAddr: 0x10000BDB0, symSize: 0x40 }
  - { offsetInCU: 0xE04A, offset: 0x24E57, size: 0x8, addend: 0x0, symName: __ZNSt3__19allocatorINS_12basic_stringIcNS_11char_traitsIcEENS0_IcEEEEE9constructB7v160006IS5_JRS5_EEEvPT_DpOT0_, symObjAddr: 0x30A0, symBinAddr: 0x10000BDF0, symSize: 0x30 }
  - { offsetInCU: 0xE0A0, offset: 0x24EAD, size: 0x8, addend: 0x0, symName: __ZNSt3__128__exception_guard_exceptionsINS_29_AllocatorDestroyRangeReverseINS_9allocatorINS_12basic_stringIcNS_11char_traitsIcEENS2_IcEEEEEEPS7_EEED2B7v160006Ev, symObjAddr: 0x30D0, symBinAddr: 0x10000BE20, symSize: 0x30 }
  - { offsetInCU: 0xE0CA, offset: 0x24ED7, size: 0x8, addend: 0x0, symName: __ZNKSt3__129_AllocatorDestroyRangeReverseINS_9allocatorINS_12basic_stringIcNS_11char_traitsIcEENS1_IcEEEEEEPS6_EclB7v160006Ev, symObjAddr: 0x3100, symBinAddr: 0x10000BE50, symSize: 0x60 }
  - { offsetInCU: 0xE0F0, offset: 0x24EFD, size: 0x8, addend: 0x0, symName: __ZNSt3__116reverse_iteratorIPNS_12basic_stringIcNS_11char_traitsIcEENS_9allocatorIcEEEEEC1B7v160006ES7_, symObjAddr: 0x31D0, symBinAddr: 0x10000BF20, symSize: 0x30 }
  - { offsetInCU: 0xE128, offset: 0x24F35, size: 0x8, addend: 0x0, symName: __ZNSt3__116reverse_iteratorIPNS_12basic_stringIcNS_11char_traitsIcEENS_9allocatorIcEEEEEppB7v160006Ev, symObjAddr: 0x3260, symBinAddr: 0x10000BFB0, symSize: 0x20 }
  - { offsetInCU: 0xE14E, offset: 0x24F5B, size: 0x8, addend: 0x0, symName: __ZNKSt3__116reverse_iteratorIPNS_12basic_stringIcNS_11char_traitsIcEENS_9allocatorIcEEEEE4baseB7v160006Ev, symObjAddr: 0x3280, symBinAddr: 0x10000BFD0, symSize: 0x20 }
  - { offsetInCU: 0xE179, offset: 0x24F86, size: 0x8, addend: 0x0, symName: __ZNSt3__119__to_address_helperINS_16reverse_iteratorIPNS_12basic_stringIcNS_11char_traitsIcEENS_9allocatorIcEEEEEEvE6__callB7v160006ERKS9_, symObjAddr: 0x32A0, symBinAddr: 0x10000BFF0, symSize: 0x50 }
  - { offsetInCU: 0xE19C, offset: 0x24FA9, size: 0x8, addend: 0x0, symName: __ZNKSt3__116reverse_iteratorIPNS_12basic_stringIcNS_11char_traitsIcEENS_9allocatorIcEEEEEptB7v160006Ev, symObjAddr: 0x32F0, symBinAddr: 0x10000C040, symSize: 0x20 }
  - { offsetInCU: 0xE1C2, offset: 0x24FCF, size: 0x8, addend: 0x0, symName: __ZNKSt3__116reverse_iteratorIPNS_12basic_stringIcNS_11char_traitsIcEENS_9allocatorIcEEEEEdeB7v160006Ev, symObjAddr: 0x3310, symBinAddr: 0x10000C060, symSize: 0x30 }
  - { offsetInCU: 0xE1F6, offset: 0x25003, size: 0x8, addend: 0x0, symName: __ZNSt3__116reverse_iteratorIPNS_12basic_stringIcNS_11char_traitsIcEENS_9allocatorIcEEEEEC2B7v160006ES7_, symObjAddr: 0x3340, symBinAddr: 0x10000C090, symSize: 0x30 }
  - { offsetInCU: 0xE22E, offset: 0x2503B, size: 0x8, addend: 0x0, symName: __ZNSt3__16vectorINS0_INS_12basic_stringIcNS_11char_traitsIcEENS_9allocatorIcEEEENS4_IS6_EEEENS4_IS8_EEE21_ConstructTransactionD2B7v160006Ev, symObjAddr: 0x3370, symBinAddr: 0x10000C0C0, symSize: 0x20 }
  - { offsetInCU: 0xE258, offset: 0x25065, size: 0x8, addend: 0x0, symName: __ZNSt3__128__exception_guard_exceptionsINS_6vectorINS1_INS_12basic_stringIcNS_11char_traitsIcEENS_9allocatorIcEEEENS5_IS7_EEEENS5_IS9_EEE16__destroy_vectorEED2B7v160006Ev, symObjAddr: 0x3390, symBinAddr: 0x10000C0E0, symSize: 0x30 }
  - { offsetInCU: 0xE282, offset: 0x2508F, size: 0x8, addend: 0x0, symName: __ZNSt3__16vectorINS0_INS_12basic_stringIcNS_11char_traitsIcEENS_9allocatorIcEEEENS4_IS6_EEEENS4_IS8_EEE16__destroy_vectorclB7v160006Ev, symObjAddr: 0x33C0, symBinAddr: 0x10000C110, symSize: 0x90 }
  - { offsetInCU: 0xE2A8, offset: 0x250B5, size: 0x8, addend: 0x0, symName: __ZNKSt3__16vectorINS0_INS_12basic_stringIcNS_11char_traitsIcEENS_9allocatorIcEEEENS4_IS6_EEEENS4_IS8_EEE17__annotate_deleteB7v160006Ev, symObjAddr: 0x3450, symBinAddr: 0x10000C1A0, symSize: 0xB0 }
  - { offsetInCU: 0xE2CE, offset: 0x250DB, size: 0x8, addend: 0x0, symName: __ZNSt3__16vectorINS0_INS_12basic_stringIcNS_11char_traitsIcEENS_9allocatorIcEEEENS4_IS6_EEEENS4_IS8_EEE7__clearB7v160006Ev, symObjAddr: 0x3510, symBinAddr: 0x10000C260, symSize: 0x20 }
  - { offsetInCU: 0xE2F4, offset: 0x25101, size: 0x8, addend: 0x0, symName: __ZNSt3__116allocator_traitsINS_9allocatorINS_6vectorINS_12basic_stringIcNS_11char_traitsIcEENS1_IcEEEENS1_IS7_EEEEEEE10deallocateB7v160006ERSA_PS9_m, symObjAddr: 0x3530, symBinAddr: 0x10000C280, symSize: 0x30 }
  - { offsetInCU: 0xE336, offset: 0x25143, size: 0x8, addend: 0x0, symName: __ZNKSt3__16vectorINS0_INS_12basic_stringIcNS_11char_traitsIcEENS_9allocatorIcEEEENS4_IS6_EEEENS4_IS8_EEE4sizeB7v160006Ev, symObjAddr: 0x3560, symBinAddr: 0x10000C2B0, symSize: 0x30 }
  - { offsetInCU: 0xE35C, offset: 0x25169, size: 0x8, addend: 0x0, symName: __ZNSt3__16vectorINS0_INS_12basic_stringIcNS_11char_traitsIcEENS_9allocatorIcEEEENS4_IS6_EEEENS4_IS8_EEE22__base_destruct_at_endB7v160006EPS8_, symObjAddr: 0x3590, symBinAddr: 0x10000C2E0, symSize: 0x90 }
  - { offsetInCU: 0xE3A0, offset: 0x251AD, size: 0x8, addend: 0x0, symName: __ZNSt3__116allocator_traitsINS_9allocatorINS_6vectorINS_12basic_stringIcNS_11char_traitsIcEENS1_IcEEEENS1_IS7_EEEEEEE7destroyB7v160006IS9_vEEvRSA_PT_, symObjAddr: 0x3620, symBinAddr: 0x10000C370, symSize: 0x30 }
  - { offsetInCU: 0xE3DD, offset: 0x251EA, size: 0x8, addend: 0x0, symName: __ZNSt3__19allocatorINS_6vectorINS_12basic_stringIcNS_11char_traitsIcEENS0_IcEEEENS0_IS6_EEEEE7destroyB7v160006EPS8_, symObjAddr: 0x3650, symBinAddr: 0x10000C3A0, symSize: 0x20 }
  - { offsetInCU: 0xE411, offset: 0x2521E, size: 0x8, addend: 0x0, symName: __ZNSt3__19allocatorINS_6vectorINS_12basic_stringIcNS_11char_traitsIcEENS0_IcEEEENS0_IS6_EEEEE10deallocateB7v160006EPS8_m, symObjAddr: 0x3670, symBinAddr: 0x10000C3C0, symSize: 0x80 }
  - { offsetInCU: 0xE453, offset: 0x25260, size: 0x8, addend: 0x0, symName: __ZNSt3__16vectorINS0_INS_12basic_stringIcNS_11char_traitsIcEENS_9allocatorIcEEEENS4_IS6_EEEENS4_IS8_EEED2B7v160006Ev, symObjAddr: 0x36F0, symBinAddr: 0x10000C440, symSize: 0x30 }
  - { offsetInCU: 0xE47D, offset: 0x2528A, size: 0x8, addend: 0x0, symName: __ZNSt3__16vectorIiNS_9allocatorIiEEEC2EmRKi, symObjAddr: 0x3720, symBinAddr: 0x10000C470, symSize: 0xF0 }
  - { offsetInCU: 0xE4DC, offset: 0x252E9, size: 0x8, addend: 0x0, symName: __ZNSt3__16vectorIiNS_9allocatorIiEEE18__construct_at_endEmRKi, symObjAddr: 0x3930, symBinAddr: 0x10000C560, symSize: 0xD0 }
  - { offsetInCU: 0xE580, offset: 0x2538D, size: 0x8, addend: 0x0, symName: __ZNSt3__16vectorINS0_IiNS_9allocatorIiEEEENS1_IS3_EEEC2EmRKS3_, symObjAddr: 0x3F50, symBinAddr: 0x10000C630, symSize: 0xF0 }
  - { offsetInCU: 0xE5DF, offset: 0x253EC, size: 0x8, addend: 0x0, symName: __ZNSt3__117__compressed_pairIPNS_6vectorIiNS_9allocatorIiEEEENS2_IS4_EEEC1B7v160006IDnNS_18__default_init_tagEEEOT_OT0_, symObjAddr: 0x4040, symBinAddr: 0x10000C720, symSize: 0x30 }
  - { offsetInCU: 0xE637, offset: 0x25444, size: 0x8, addend: 0x0, symName: __ZNSt3__16vectorINS0_IiNS_9allocatorIiEEEENS1_IS3_EEE16__destroy_vectorC1ERS5_, symObjAddr: 0x40B0, symBinAddr: 0x10000C790, symSize: 0x30 }
  - { offsetInCU: 0xE670, offset: 0x2547D, size: 0x8, addend: 0x0, symName: __ZNSt3__16vectorINS0_IiNS_9allocatorIiEEEENS1_IS3_EEE11__vallocateB7v160006Em, symObjAddr: 0x40F0, symBinAddr: 0x10000C7D0, symSize: 0xA0 }
  - { offsetInCU: 0xE6B4, offset: 0x254C1, size: 0x8, addend: 0x0, symName: __ZNSt3__16vectorINS0_IiNS_9allocatorIiEEEENS1_IS3_EEE18__construct_at_endEmRKS3_, symObjAddr: 0x4190, symBinAddr: 0x10000C870, symSize: 0xD0 }
  - { offsetInCU: 0xE735, offset: 0x25542, size: 0x8, addend: 0x0, symName: __ZNSt3__128__exception_guard_exceptionsINS_6vectorINS1_IiNS_9allocatorIiEEEENS2_IS4_EEE16__destroy_vectorEE10__completeB7v160006Ev, symObjAddr: 0x4260, symBinAddr: 0x10000C940, symSize: 0x20 }
  - { offsetInCU: 0xE75B, offset: 0x25568, size: 0x8, addend: 0x0, symName: __ZNSt3__128__exception_guard_exceptionsINS_6vectorINS1_IiNS_9allocatorIiEEEENS2_IS4_EEE16__destroy_vectorEED1B7v160006Ev, symObjAddr: 0x4280, symBinAddr: 0x10000C960, symSize: 0x20 }
  - { offsetInCU: 0xE785, offset: 0x25592, size: 0x8, addend: 0x0, symName: __ZNSt3__117__compressed_pairIPNS_6vectorIiNS_9allocatorIiEEEENS2_IS4_EEEC2B7v160006IDnNS_18__default_init_tagEEEOT_OT0_, symObjAddr: 0x42A0, symBinAddr: 0x10000C980, symSize: 0x40 }
  - { offsetInCU: 0xE7DD, offset: 0x255EA, size: 0x8, addend: 0x0, symName: __ZNSt3__122__compressed_pair_elemIPNS_6vectorIiNS_9allocatorIiEEEELi0ELb0EEC2B7v160006IDnvEEOT_, symObjAddr: 0x42E0, symBinAddr: 0x10000C9C0, symSize: 0x20 }
  - { offsetInCU: 0xE81F, offset: 0x2562C, size: 0x8, addend: 0x0, symName: __ZNSt3__122__compressed_pair_elemINS_9allocatorINS_6vectorIiNS1_IiEEEEEELi1ELb1EEC2B7v160006ENS_18__default_init_tagE, symObjAddr: 0x4300, symBinAddr: 0x10000C9E0, symSize: 0x20 }
  - { offsetInCU: 0xE854, offset: 0x25661, size: 0x8, addend: 0x0, symName: __ZNSt3__19allocatorINS_6vectorIiNS0_IiEEEEEC2B7v160006Ev, symObjAddr: 0x4320, symBinAddr: 0x10000CA00, symSize: 0x20 }
  - { offsetInCU: 0xE87E, offset: 0x2568B, size: 0x8, addend: 0x0, symName: __ZNSt3__116__non_trivial_ifILb1ENS_9allocatorINS_6vectorIiNS1_IiEEEEEEEC2B7v160006Ev, symObjAddr: 0x4340, symBinAddr: 0x10000CA20, symSize: 0x10 }
  - { offsetInCU: 0xE8A8, offset: 0x256B5, size: 0x8, addend: 0x0, symName: __ZNSt3__128__exception_guard_exceptionsINS_6vectorINS1_IiNS_9allocatorIiEEEENS2_IS4_EEE16__destroy_vectorEEC1B7v160006ES7_, symObjAddr: 0x4350, symBinAddr: 0x10000CA30, symSize: 0x30 }
  - { offsetInCU: 0xE8E0, offset: 0x256ED, size: 0x8, addend: 0x0, symName: __ZNSt3__128__exception_guard_exceptionsINS_6vectorINS1_IiNS_9allocatorIiEEEENS2_IS4_EEE16__destroy_vectorEEC2B7v160006ES7_, symObjAddr: 0x4380, symBinAddr: 0x10000CA60, symSize: 0x20 }
  - { offsetInCU: 0xE918, offset: 0x25725, size: 0x8, addend: 0x0, symName: __ZNSt3__16vectorINS0_IiNS_9allocatorIiEEEENS1_IS3_EEE16__destroy_vectorC2ERS5_, symObjAddr: 0x43A0, symBinAddr: 0x10000CA80, symSize: 0x20 }
  - { offsetInCU: 0xE951, offset: 0x2575E, size: 0x8, addend: 0x0, symName: __ZNKSt3__16vectorINS0_IiNS_9allocatorIiEEEENS1_IS3_EEE8max_sizeEv, symObjAddr: 0x43C0, symBinAddr: 0x10000CAA0, symSize: 0x70 }
  - { offsetInCU: 0xE979, offset: 0x25786, size: 0x8, addend: 0x0, symName: __ZNKSt3__16vectorINS0_IiNS_9allocatorIiEEEENS1_IS3_EEE20__throw_length_errorB7v160006Ev, symObjAddr: 0x4430, symBinAddr: 0x10000CB10, symSize: 0x20 }
  - { offsetInCU: 0xE99F, offset: 0x257AC, size: 0x8, addend: 0x0, symName: __ZNSt3__16vectorINS0_IiNS_9allocatorIiEEEENS1_IS3_EEE7__allocB7v160006Ev, symObjAddr: 0x4490, symBinAddr: 0x10000CB70, symSize: 0x20 }
  - { offsetInCU: 0xE9C5, offset: 0x257D2, size: 0x8, addend: 0x0, symName: __ZNSt3__16vectorINS0_IiNS_9allocatorIiEEEENS1_IS3_EEE9__end_capB7v160006Ev, symObjAddr: 0x44B0, symBinAddr: 0x10000CB90, symSize: 0x20 }
  - { offsetInCU: 0xE9EB, offset: 0x257F8, size: 0x8, addend: 0x0, symName: __ZNKSt3__16vectorINS0_IiNS_9allocatorIiEEEENS1_IS3_EEE14__annotate_newB7v160006Em, symObjAddr: 0x44D0, symBinAddr: 0x10000CBB0, symSize: 0xA0 }
  - { offsetInCU: 0xEA2A, offset: 0x25837, size: 0x8, addend: 0x0, symName: __ZNSt3__116allocator_traitsINS_9allocatorINS_6vectorIiNS1_IiEEEEEEE8max_sizeB7v160006IS5_vEEmRKS5_, symObjAddr: 0x4570, symBinAddr: 0x10000CC50, symSize: 0x20 }
  - { offsetInCU: 0xEA58, offset: 0x25865, size: 0x8, addend: 0x0, symName: __ZNKSt3__16vectorINS0_IiNS_9allocatorIiEEEENS1_IS3_EEE7__allocB7v160006Ev, symObjAddr: 0x4590, symBinAddr: 0x10000CC70, symSize: 0x20 }
  - { offsetInCU: 0xEA7E, offset: 0x2588B, size: 0x8, addend: 0x0, symName: __ZNKSt3__19allocatorINS_6vectorIiNS0_IiEEEEE8max_sizeB7v160006Ev, symObjAddr: 0x45B0, symBinAddr: 0x10000CC90, symSize: 0x20 }
  - { offsetInCU: 0xEAA4, offset: 0x258B1, size: 0x8, addend: 0x0, symName: __ZNKSt3__117__compressed_pairIPNS_6vectorIiNS_9allocatorIiEEEENS2_IS4_EEE6secondB7v160006Ev, symObjAddr: 0x45D0, symBinAddr: 0x10000CCB0, symSize: 0x20 }
  - { offsetInCU: 0xEACA, offset: 0x258D7, size: 0x8, addend: 0x0, symName: __ZNKSt3__122__compressed_pair_elemINS_9allocatorINS_6vectorIiNS1_IiEEEEEELi1ELb1EE5__getB7v160006Ev, symObjAddr: 0x45F0, symBinAddr: 0x10000CCD0, symSize: 0x10 }
  - { offsetInCU: 0xEAF0, offset: 0x258FD, size: 0x8, addend: 0x0, symName: __ZNSt3__19allocatorINS_6vectorIiNS0_IiEEEEE8allocateB7v160006Em, symObjAddr: 0x4600, symBinAddr: 0x10000CCE0, symSize: 0x80 }
  - { offsetInCU: 0xEB24, offset: 0x25931, size: 0x8, addend: 0x0, symName: __ZNSt3__117__compressed_pairIPNS_6vectorIiNS_9allocatorIiEEEENS2_IS4_EEE6secondB7v160006Ev, symObjAddr: 0x4680, symBinAddr: 0x10000CD60, symSize: 0x20 }
  - { offsetInCU: 0xEB4A, offset: 0x25957, size: 0x8, addend: 0x0, symName: __ZNSt3__122__compressed_pair_elemINS_9allocatorINS_6vectorIiNS1_IiEEEEEELi1ELb1EE5__getB7v160006Ev, symObjAddr: 0x46A0, symBinAddr: 0x10000CD80, symSize: 0x10 }
  - { offsetInCU: 0xEB70, offset: 0x2597D, size: 0x8, addend: 0x0, symName: __ZNSt3__117__compressed_pairIPNS_6vectorIiNS_9allocatorIiEEEENS2_IS4_EEE5firstB7v160006Ev, symObjAddr: 0x46B0, symBinAddr: 0x10000CD90, symSize: 0x20 }
  - { offsetInCU: 0xEB96, offset: 0x259A3, size: 0x8, addend: 0x0, symName: __ZNSt3__122__compressed_pair_elemIPNS_6vectorIiNS_9allocatorIiEEEELi0ELb0EE5__getB7v160006Ev, symObjAddr: 0x46D0, symBinAddr: 0x10000CDB0, symSize: 0x10 }
  - { offsetInCU: 0xEBBC, offset: 0x259C9, size: 0x8, addend: 0x0, symName: __ZNKSt3__16vectorINS0_IiNS_9allocatorIiEEEENS1_IS3_EEE31__annotate_contiguous_containerB7v160006EPKvS7_S7_S7_, symObjAddr: 0x46E0, symBinAddr: 0x10000CDC0, symSize: 0x20 }
  - { offsetInCU: 0xEC0E, offset: 0x25A1B, size: 0x8, addend: 0x0, symName: __ZNKSt3__16vectorINS0_IiNS_9allocatorIiEEEENS1_IS3_EEE4dataB7v160006Ev, symObjAddr: 0x4700, symBinAddr: 0x10000CDE0, symSize: 0x20 }
  - { offsetInCU: 0xEC34, offset: 0x25A41, size: 0x8, addend: 0x0, symName: __ZNKSt3__16vectorINS0_IiNS_9allocatorIiEEEENS1_IS3_EEE8capacityB7v160006Ev, symObjAddr: 0x4720, symBinAddr: 0x10000CE00, symSize: 0x40 }
  - { offsetInCU: 0xEC5A, offset: 0x25A67, size: 0x8, addend: 0x0, symName: __ZNKSt3__16vectorINS0_IiNS_9allocatorIiEEEENS1_IS3_EEE9__end_capB7v160006Ev, symObjAddr: 0x4770, symBinAddr: 0x10000CE50, symSize: 0x20 }
  - { offsetInCU: 0xEC80, offset: 0x25A8D, size: 0x8, addend: 0x0, symName: __ZNKSt3__117__compressed_pairIPNS_6vectorIiNS_9allocatorIiEEEENS2_IS4_EEE5firstB7v160006Ev, symObjAddr: 0x4790, symBinAddr: 0x10000CE70, symSize: 0x20 }
  - { offsetInCU: 0xECA6, offset: 0x25AB3, size: 0x8, addend: 0x0, symName: __ZNKSt3__122__compressed_pair_elemIPNS_6vectorIiNS_9allocatorIiEEEELi0ELb0EE5__getB7v160006Ev, symObjAddr: 0x47B0, symBinAddr: 0x10000CE90, symSize: 0x10 }
  - { offsetInCU: 0xECE5, offset: 0x25AF2, size: 0x8, addend: 0x0, symName: __ZNSt3__16vectorINS0_IiNS_9allocatorIiEEEENS1_IS3_EEE21_ConstructTransactionC1B7v160006ERS5_m, symObjAddr: 0x47C0, symBinAddr: 0x10000CEA0, symSize: 0x30 }
  - { offsetInCU: 0xED2D, offset: 0x25B3A, size: 0x8, addend: 0x0, symName: __ZNSt3__116allocator_traitsINS_9allocatorINS_6vectorIiNS1_IiEEEEEEE9constructB7v160006IS4_JRKS4_EvEEvRS5_PT_DpOT0_, symObjAddr: 0x47F0, symBinAddr: 0x10000CED0, symSize: 0x30 }
  - { offsetInCU: 0xED84, offset: 0x25B91, size: 0x8, addend: 0x0, symName: __ZNSt3__16vectorINS0_IiNS_9allocatorIiEEEENS1_IS3_EEE21_ConstructTransactionD1B7v160006Ev, symObjAddr: 0x4820, symBinAddr: 0x10000CF00, symSize: 0x20 }
  - { offsetInCU: 0xEDAE, offset: 0x25BBB, size: 0x8, addend: 0x0, symName: __ZNSt3__16vectorINS0_IiNS_9allocatorIiEEEENS1_IS3_EEE21_ConstructTransactionC2B7v160006ERS5_m, symObjAddr: 0x4840, symBinAddr: 0x10000CF20, symSize: 0x40 }
  - { offsetInCU: 0xEDF6, offset: 0x25C03, size: 0x8, addend: 0x0, symName: __ZNSt3__19allocatorINS_6vectorIiNS0_IiEEEEE9constructB7v160006IS3_JRKS3_EEEvPT_DpOT0_, symObjAddr: 0x4880, symBinAddr: 0x10000CF60, symSize: 0x30 }
  - { offsetInCU: 0xEE4C, offset: 0x25C59, size: 0x8, addend: 0x0, symName: __ZNSt3__16vectorIiNS_9allocatorIiEEEC1ERKS3_, symObjAddr: 0x48B0, symBinAddr: 0x10000CF90, symSize: 0x30 }
  - { offsetInCU: 0xEE87, offset: 0x25C94, size: 0x8, addend: 0x0, symName: __ZNSt3__16vectorIiNS_9allocatorIiEEEC2ERKS3_, symObjAddr: 0x48E0, symBinAddr: 0x10000CFC0, symSize: 0x110 }
  - { offsetInCU: 0xEEE7, offset: 0x25CF4, size: 0x8, addend: 0x0, symName: __ZNSt3__116allocator_traitsINS_9allocatorIiEEE37select_on_container_copy_constructionB7v160006IS2_vvEES2_RKS2_, symObjAddr: 0x49F0, symBinAddr: 0x10000D0D0, symSize: 0x10 }
  - { offsetInCU: 0xEF1B, offset: 0x25D28, size: 0x8, addend: 0x0, symName: __ZNSt3__117__compressed_pairIPiNS_9allocatorIiEEEC1B7v160006IDnS3_EEOT_OT0_, symObjAddr: 0x4A00, symBinAddr: 0x10000D0E0, symSize: 0x30 }
  - { offsetInCU: 0xEF73, offset: 0x25D80, size: 0x8, addend: 0x0, symName: __ZNSt3__16vectorIiNS_9allocatorIiEEE18__construct_at_endIPiLi0EEEvT_S6_m, symObjAddr: 0x4A30, symBinAddr: 0x10000D110, symSize: 0xA0 }
  - { offsetInCU: 0xEFE6, offset: 0x25DF3, size: 0x8, addend: 0x0, symName: __ZNSt3__117__compressed_pairIPiNS_9allocatorIiEEEC2B7v160006IDnS3_EEOT_OT0_, symObjAddr: 0x4AD0, symBinAddr: 0x10000D1B0, symSize: 0x40 }
  - { offsetInCU: 0xF03E, offset: 0x25E4B, size: 0x8, addend: 0x0, symName: __ZNSt3__122__compressed_pair_elemINS_9allocatorIiEELi1ELb1EEC2B7v160006IS2_vEEOT_, symObjAddr: 0x4B10, symBinAddr: 0x10000D1F0, symSize: 0x10 }
  - { offsetInCU: 0xF080, offset: 0x25E8D, size: 0x8, addend: 0x0, symName: __ZNSt3__129_AllocatorDestroyRangeReverseINS_9allocatorIiEEPiEC1B7v160006ERS2_RS3_S6_, symObjAddr: 0x4C90, symBinAddr: 0x10000D370, symSize: 0x40 }
  - { offsetInCU: 0xF0D7, offset: 0x25EE4, size: 0x8, addend: 0x0, symName: __ZNSt3__116allocator_traitsINS_9allocatorIiEEE9constructB7v160006IiJRiEvEEvRS2_PT_DpOT0_, symObjAddr: 0x4CD0, symBinAddr: 0x10000D3B0, symSize: 0x30 }
  - { offsetInCU: 0xF12E, offset: 0x25F3B, size: 0x8, addend: 0x0, symName: __ZNSt3__128__exception_guard_exceptionsINS_29_AllocatorDestroyRangeReverseINS_9allocatorIiEEPiEEE10__completeB7v160006Ev, symObjAddr: 0x4D00, symBinAddr: 0x10000D3E0, symSize: 0x20 }
  - { offsetInCU: 0xF154, offset: 0x25F61, size: 0x8, addend: 0x0, symName: __ZNSt3__128__exception_guard_exceptionsINS_29_AllocatorDestroyRangeReverseINS_9allocatorIiEEPiEEED1B7v160006Ev, symObjAddr: 0x4D20, symBinAddr: 0x10000D400, symSize: 0x20 }
  - { offsetInCU: 0xF17E, offset: 0x25F8B, size: 0x8, addend: 0x0, symName: __ZNSt3__128__exception_guard_exceptionsINS_29_AllocatorDestroyRangeReverseINS_9allocatorIiEEPiEEEC1B7v160006ES5_, symObjAddr: 0x4D40, symBinAddr: 0x10000D420, symSize: 0x40 }
  - { offsetInCU: 0xF1B6, offset: 0x25FC3, size: 0x8, addend: 0x0, symName: __ZNSt3__128__exception_guard_exceptionsINS_29_AllocatorDestroyRangeReverseINS_9allocatorIiEEPiEEEC2B7v160006ES5_, symObjAddr: 0x4D80, symBinAddr: 0x10000D460, symSize: 0x30 }
  - { offsetInCU: 0xF1EE, offset: 0x25FFB, size: 0x8, addend: 0x0, symName: __ZNSt3__129_AllocatorDestroyRangeReverseINS_9allocatorIiEEPiEC2B7v160006ERS2_RS3_S6_, symObjAddr: 0x4DB0, symBinAddr: 0x10000D490, symSize: 0x40 }
  - { offsetInCU: 0xF245, offset: 0x26052, size: 0x8, addend: 0x0, symName: __ZNSt3__19allocatorIiE9constructB7v160006IiJRiEEEvPT_DpOT0_, symObjAddr: 0x4DF0, symBinAddr: 0x10000D4D0, symSize: 0x20 }
  - { offsetInCU: 0xF29B, offset: 0x260A8, size: 0x8, addend: 0x0, symName: __ZNSt3__128__exception_guard_exceptionsINS_29_AllocatorDestroyRangeReverseINS_9allocatorIiEEPiEEED2B7v160006Ev, symObjAddr: 0x4E10, symBinAddr: 0x10000D4F0, symSize: 0x30 }
  - { offsetInCU: 0xF2C5, offset: 0x260D2, size: 0x8, addend: 0x0, symName: __ZNKSt3__129_AllocatorDestroyRangeReverseINS_9allocatorIiEEPiEclB7v160006Ev, symObjAddr: 0x4E40, symBinAddr: 0x10000D520, symSize: 0x60 }
  - { offsetInCU: 0xF2EB, offset: 0x260F8, size: 0x8, addend: 0x0, symName: __ZNSt3__16vectorINS0_IiNS_9allocatorIiEEEENS1_IS3_EEE21_ConstructTransactionD2B7v160006Ev, symObjAddr: 0x50B0, symBinAddr: 0x10000D5F0, symSize: 0x20 }
  - { offsetInCU: 0xF315, offset: 0x26122, size: 0x8, addend: 0x0, symName: __ZNSt3__128__exception_guard_exceptionsINS_6vectorINS1_IiNS_9allocatorIiEEEENS2_IS4_EEE16__destroy_vectorEED2B7v160006Ev, symObjAddr: 0x50D0, symBinAddr: 0x10000D610, symSize: 0x30 }
  - { offsetInCU: 0xF33F, offset: 0x2614C, size: 0x8, addend: 0x0, symName: __ZNSt3__16vectorINS0_IiNS_9allocatorIiEEEENS1_IS3_EEE16__destroy_vectorclB7v160006Ev, symObjAddr: 0x5100, symBinAddr: 0x10000D640, symSize: 0x90 }
  - { offsetInCU: 0xF365, offset: 0x26172, size: 0x8, addend: 0x0, symName: __ZNKSt3__16vectorINS0_IiNS_9allocatorIiEEEENS1_IS3_EEE17__annotate_deleteB7v160006Ev, symObjAddr: 0x5190, symBinAddr: 0x10000D6D0, symSize: 0xB0 }
  - { offsetInCU: 0xF38B, offset: 0x26198, size: 0x8, addend: 0x0, symName: __ZNSt3__16vectorINS0_IiNS_9allocatorIiEEEENS1_IS3_EEE7__clearB7v160006Ev, symObjAddr: 0x5250, symBinAddr: 0x10000D790, symSize: 0x20 }
  - { offsetInCU: 0xF3B1, offset: 0x261BE, size: 0x8, addend: 0x0, symName: __ZNSt3__116allocator_traitsINS_9allocatorINS_6vectorIiNS1_IiEEEEEEE10deallocateB7v160006ERS5_PS4_m, symObjAddr: 0x5270, symBinAddr: 0x10000D7B0, symSize: 0x30 }
  - { offsetInCU: 0xF3F3, offset: 0x26200, size: 0x8, addend: 0x0, symName: __ZNKSt3__16vectorINS0_IiNS_9allocatorIiEEEENS1_IS3_EEE4sizeB7v160006Ev, symObjAddr: 0x52A0, symBinAddr: 0x10000D7E0, symSize: 0x30 }
  - { offsetInCU: 0xF419, offset: 0x26226, size: 0x8, addend: 0x0, symName: __ZNSt3__16vectorINS0_IiNS_9allocatorIiEEEENS1_IS3_EEE22__base_destruct_at_endB7v160006EPS3_, symObjAddr: 0x52D0, symBinAddr: 0x10000D810, symSize: 0x90 }
  - { offsetInCU: 0xF45D, offset: 0x2626A, size: 0x8, addend: 0x0, symName: __ZNSt3__116allocator_traitsINS_9allocatorINS_6vectorIiNS1_IiEEEEEEE7destroyB7v160006IS4_vEEvRS5_PT_, symObjAddr: 0x5360, symBinAddr: 0x10000D8A0, symSize: 0x30 }
  - { offsetInCU: 0xF49A, offset: 0x262A7, size: 0x8, addend: 0x0, symName: __ZNSt3__19allocatorINS_6vectorIiNS0_IiEEEEE7destroyB7v160006EPS3_, symObjAddr: 0x5390, symBinAddr: 0x10000D8D0, symSize: 0x20 }
  - { offsetInCU: 0xF4CE, offset: 0x262DB, size: 0x8, addend: 0x0, symName: __ZNSt3__19allocatorINS_6vectorIiNS0_IiEEEEE10deallocateB7v160006EPS3_m, symObjAddr: 0x53B0, symBinAddr: 0x10000D8F0, symSize: 0x80 }
  - { offsetInCU: 0xF510, offset: 0x2631D, size: 0x8, addend: 0x0, symName: __ZNSt3__16vectorINS0_IiNS_9allocatorIiEEEENS1_IS3_EEED2B7v160006Ev, symObjAddr: 0x5430, symBinAddr: 0x10000D970, symSize: 0x30 }
  - { offsetInCU: 0xF5DE, offset: 0x263EB, size: 0x8, addend: 0x0, symName: __ZNKSt3__113basic_istreamIcNS_11char_traitsIcEEE6sentrycvbB7v160006Ev, symObjAddr: 0x5860, symBinAddr: 0x10000D9A0, symSize: 0x20 }
  - { offsetInCU: 0xF604, offset: 0x26411, size: 0x8, addend: 0x0, symName: __ZNSt3__112basic_stringIcNS_11char_traitsIcEENS_9allocatorIcEEE5clearB7v160006Ev, symObjAddr: 0x5880, symBinAddr: 0x10000D9C0, symSize: 0xA0 }
  - { offsetInCU: 0xF62C, offset: 0x26439, size: 0x8, addend: 0x0, symName: __ZNKSt3__112basic_stringIcNS_11char_traitsIcEENS_9allocatorIcEEE8max_sizeB7v160006Ev, symObjAddr: 0x5940, symBinAddr: 0x10000DA60, symSize: 0xA0 }
  - { offsetInCU: 0xF67E, offset: 0x2648B, size: 0x8, addend: 0x0, symName: __ZNSt3__115basic_streambufIcNS_11char_traitsIcEEE5sgetcB7v160006Ev, symObjAddr: 0x5A30, symBinAddr: 0x10000DB00, symSize: 0x50 }
  - { offsetInCU: 0xF6A4, offset: 0x264B1, size: 0x8, addend: 0x0, symName: __ZNSt3__111char_traitsIcE12to_char_typeEi, symObjAddr: 0x5AB0, symBinAddr: 0x10000DB50, symSize: 0x10 }
  - { offsetInCU: 0xF6CC, offset: 0x264D9, size: 0x8, addend: 0x0, symName: __ZNKSt3__15ctypeIcE2isB7v160006Ejc, symObjAddr: 0x5AC0, symBinAddr: 0x10000DB60, symSize: 0x70 }
  - { offsetInCU: 0xF710, offset: 0x2651D, size: 0x8, addend: 0x0, symName: __ZNSt3__115basic_streambufIcNS_11char_traitsIcEEE6sbumpcB7v160006Ev, symObjAddr: 0x5B30, symBinAddr: 0x10000DBD0, symSize: 0x60 }
  - { offsetInCU: 0xF736, offset: 0x26543, size: 0x8, addend: 0x0, symName: __ZNSt3__18ios_base18__setstate_nothrowB7v160006Ej, symObjAddr: 0x5BC0, symBinAddr: 0x10000DC30, symSize: 0x50 }
  - { offsetInCU: 0xF76B, offset: 0x26578, size: 0x8, addend: 0x0, symName: __ZNKSt3__19basic_iosIcNS_11char_traitsIcEEE10exceptionsB7v160006Ev, symObjAddr: 0x5C10, symBinAddr: 0x10000DC80, symSize: 0x20 }
  - { offsetInCU: 0xF791, offset: 0x2659E, size: 0x8, addend: 0x0, symName: __ZNSt3__111char_traitsIcE6assignERcRKc, symObjAddr: 0x5CD0, symBinAddr: 0x10000DCB0, symSize: 0x20 }
  - { offsetInCU: 0xF7C2, offset: 0x265CF, size: 0x8, addend: 0x0, symName: __ZNSt3__112basic_stringIcNS_11char_traitsIcEENS_9allocatorIcEEE18__get_long_pointerB7v160006Ev, symObjAddr: 0x5CF0, symBinAddr: 0x10000DCD0, symSize: 0x20 }
  - { offsetInCU: 0xF7E8, offset: 0x265F5, size: 0x8, addend: 0x0, symName: __ZNSt3__112basic_stringIcNS_11char_traitsIcEENS_9allocatorIcEEE19__get_short_pointerB7v160006Ev, symObjAddr: 0x5D10, symBinAddr: 0x10000DCF0, symSize: 0x30 }
  - { offsetInCU: 0xF80E, offset: 0x2661B, size: 0x8, addend: 0x0, symName: __ZNSt3__112basic_stringIcNS_11char_traitsIcEENS_9allocatorIcEEE16__set_short_sizeB7v160006Em, symObjAddr: 0x5D40, symBinAddr: 0x10000DD20, symSize: 0x50 }
  - { offsetInCU: 0xF843, offset: 0x26650, size: 0x8, addend: 0x0, symName: __ZNSt3__114pointer_traitsIPcE10pointer_toB7v160006ERc, symObjAddr: 0x5DC0, symBinAddr: 0x10000DD70, symSize: 0x10 }
  - { offsetInCU: 0xF866, offset: 0x26673, size: 0x8, addend: 0x0, symName: __ZNKSt3__112basic_stringIcNS_11char_traitsIcEENS_9allocatorIcEEE7__allocB7v160006Ev, symObjAddr: 0x5DD0, symBinAddr: 0x10000DD80, symSize: 0x20 }
  - { offsetInCU: 0xF88C, offset: 0x26699, size: 0x8, addend: 0x0, symName: __ZNSt3__114numeric_limitsImE3maxB7v160006Ev, symObjAddr: 0x5DF0, symBinAddr: 0x10000DDA0, symSize: 0x10 }
  - { offsetInCU: 0xF8A0, offset: 0x266AD, size: 0x8, addend: 0x0, symName: __ZNKSt3__117__compressed_pairINS_12basic_stringIcNS_11char_traitsIcEENS_9allocatorIcEEE5__repES5_E6secondB7v160006Ev, symObjAddr: 0x5E00, symBinAddr: 0x10000DDB0, symSize: 0x20 }
  - { offsetInCU: 0xF8C6, offset: 0x266D3, size: 0x8, addend: 0x0, symName: __ZNKSt3__122__compressed_pair_elemINS_9allocatorIcEELi1ELb1EE5__getB7v160006Ev, symObjAddr: 0x5E20, symBinAddr: 0x10000DDD0, symSize: 0x10 }
  - { offsetInCU: 0xF8EC, offset: 0x266F9, size: 0x8, addend: 0x0, symName: __ZNSt3__123__libcpp_numeric_limitsImLb1EE3maxB7v160006Ev, symObjAddr: 0x5E30, symBinAddr: 0x10000DDE0, symSize: 0x10 }
  - { offsetInCU: 0xF900, offset: 0x2670D, size: 0x8, addend: 0x0, symName: __ZNSt3__111char_traitsIcE11to_int_typeEc, symObjAddr: 0x5E60, symBinAddr: 0x10000DDF0, symSize: 0x10 }
  - { offsetInCU: 0xF922, offset: 0x2672F, size: 0x8, addend: 0x0, symName: __Z7isasciii, symObjAddr: 0x5E70, symBinAddr: 0x10000DE00, symSize: 0x20 }
  - { offsetInCU: 0xF94F, offset: 0x2675C, size: 0x8, addend: 0x0, symName: __ZNKSt3__18ios_base10exceptionsB7v160006Ev, symObjAddr: 0x5E90, symBinAddr: 0x10000DE20, symSize: 0x20 }
  - { offsetInCU: 0xF977, offset: 0x26784, size: 0x8, addend: 0x0, symName: __ZNSt3__16vectorIiNS_9allocatorIiEEE11__make_iterB7v160006EPi, symObjAddr: 0x7940, symBinAddr: 0x10000DE40, symSize: 0x30 }
  - { offsetInCU: 0xF9AC, offset: 0x267B9, size: 0x8, addend: 0x0, symName: __ZNSt3__111__wrap_iterIPiEC1B7v160006EPKvS1_, symObjAddr: 0x7970, symBinAddr: 0x10000DE70, symSize: 0x30 }
  - { offsetInCU: 0xF9F2, offset: 0x267FF, size: 0x8, addend: 0x0, symName: __ZNSt3__111__wrap_iterIPiEC2B7v160006EPKvS1_, symObjAddr: 0x79A0, symBinAddr: 0x10000DEA0, symSize: 0x20 }
  - { offsetInCU: 0xFA38, offset: 0x26845, size: 0x8, addend: 0x0, symName: __ZNSt3__18_IterOpsINS_17_ClassicAlgPolicyEE4nextB7v160006INS_11__wrap_iterIPiEEEET_S7_S7_, symObjAddr: 0x7AF0, symBinAddr: 0x10000DFF0, symSize: 0x20 }
  - { offsetInCU: 0xFA6F, offset: 0x2687C, size: 0x8, addend: 0x0, symName: __ZNSt3__124uniform_int_distributionIlEC1Ell, symObjAddr: 0x7B50, symBinAddr: 0x10000E050, symSize: 0x30 }
  - { offsetInCU: 0xFAB5, offset: 0x268C2, size: 0x8, addend: 0x0, symName: __ZNSt3__111__wrap_iterIPiEmmB7v160006Ev, symObjAddr: 0x7B80, symBinAddr: 0x10000E080, symSize: 0x20 }
  - { offsetInCU: 0xFADB, offset: 0x268E8, size: 0x8, addend: 0x0, symName: __ZNSt3__124uniform_int_distributionIlE10param_typeC1Ell, symObjAddr: 0x7D50, symBinAddr: 0x10000E250, symSize: 0x30 }
  - { offsetInCU: 0xFB26, offset: 0x26933, size: 0x8, addend: 0x0, symName: __ZNSt3__18_IterOpsINS_17_ClassicAlgPolicyEE9iter_swapB7v160006IRNS_11__wrap_iterIPiEES6_EEvOT_OT0_, symObjAddr: 0x7D80, symBinAddr: 0x10000E280, symSize: 0x40 }
  - { offsetInCU: 0xFB69, offset: 0x26976, size: 0x8, addend: 0x0, symName: __ZNKSt3__111__wrap_iterIPiEplB7v160006El, symObjAddr: 0x7DC0, symBinAddr: 0x10000E2C0, symSize: 0x40 }
  - { offsetInCU: 0xFBAB, offset: 0x269B8, size: 0x8, addend: 0x0, symName: __ZNSt3__111__wrap_iterIPiEppB7v160006Ev, symObjAddr: 0x7E00, symBinAddr: 0x10000E300, symSize: 0x20 }
  - { offsetInCU: 0xFBD1, offset: 0x269DE, size: 0x8, addend: 0x0, symName: __ZNKSt3__111__wrap_iterIPiE4baseB7v160006Ev, symObjAddr: 0x7E20, symBinAddr: 0x10000E320, symSize: 0x20 }
  - { offsetInCU: 0xFBF7, offset: 0x26A04, size: 0x8, addend: 0x0, symName: __ZNSt3__124uniform_int_distributionIlEC2Ell, symObjAddr: 0x7E40, symBinAddr: 0x10000E340, symSize: 0x30 }
  - { offsetInCU: 0xFC3D, offset: 0x26A4A, size: 0x8, addend: 0x0, symName: __ZNKSt3__124uniform_int_distributionIlE10param_type1bEv, symObjAddr: 0x7E70, symBinAddr: 0x10000E370, symSize: 0x20 }
  - { offsetInCU: 0xFC63, offset: 0x26A70, size: 0x8, addend: 0x0, symName: __ZNKSt3__124uniform_int_distributionIlE10param_type1aEv, symObjAddr: 0x7E90, symBinAddr: 0x10000E390, symSize: 0x20 }
  - { offsetInCU: 0xFC89, offset: 0x26A96, size: 0x8, addend: 0x0, symName: __ZNSt3__125__independent_bits_engineINS_23mersenne_twister_engineIjLm32ELm624ELm397ELm31ELj2567483615ELm11ELj4294967295ELm7ELj2636928640ELm15ELj4022730752ELm18ELj1812433253EEEmEC1ERS2_m, symObjAddr: 0x7EB0, symBinAddr: 0x10000E3B0, symSize: 0x30 }
  - { offsetInCU: 0xFCD0, offset: 0x26ADD, size: 0x8, addend: 0x0, symName: __ZNSt3__125__independent_bits_engineINS_23mersenne_twister_engineIjLm32ELm624ELm397ELm31ELj2567483615ELm11ELj4294967295ELm7ELj2636928640ELm15ELj4022730752ELm18ELj1812433253EEEmEclEv, symObjAddr: 0x7EE0, symBinAddr: 0x10000E3E0, symSize: 0x20 }
  - { offsetInCU: 0xFCF6, offset: 0x26B03, size: 0x8, addend: 0x0, symName: __ZNSt3__125__independent_bits_engineINS_23mersenne_twister_engineIjLm32ELm624ELm397ELm31ELj2567483615ELm11ELj4294967295ELm7ELj2636928640ELm15ELj4022730752ELm18ELj1812433253EEEmEC2ERS2_m, symObjAddr: 0x7F40, symBinAddr: 0x10000E440, symSize: 0x230 }
  - { offsetInCU: 0xFD3D, offset: 0x26B4A, size: 0x8, addend: 0x0, symName: __ZNSt3__125__independent_bits_engineINS_23mersenne_twister_engineIjLm32ELm624ELm397ELm31ELj2567483615ELm11ELj4294967295ELm7ELj2636928640ELm15ELj4022730752ELm18ELj1812433253EEEmE6__evalENS_17integral_constantIbLb1EEE, symObjAddr: 0x8170, symBinAddr: 0x10000E670, symSize: 0x180 }
  - { offsetInCU: 0xFDFB, offset: 0x26C08, size: 0x8, addend: 0x0, symName: __ZNSt3__124uniform_int_distributionIlE10param_typeC2Ell, symObjAddr: 0x84C0, symBinAddr: 0x10000E810, symSize: 0x30 }
  - { offsetInCU: 0xFE41, offset: 0x26C4E, size: 0x8, addend: 0x0, symName: __ZNKSt3__111__wrap_iterIPiEdeB7v160006Ev, symObjAddr: 0x8560, symBinAddr: 0x10000E8B0, symSize: 0x20 }
  - { offsetInCU: 0xFE67, offset: 0x26C74, size: 0x8, addend: 0x0, symName: __ZNSt3__111__wrap_iterIPiEpLB7v160006El, symObjAddr: 0x8580, symBinAddr: 0x10000E8D0, symSize: 0x20 }
  - { offsetInCU: 0x3F, offset: 0x26EA6, size: 0x8, addend: 0x0, symName: _attributeList, symObjAddr: 0x2B700, symBinAddr: 0x100030050, symSize: 0x0 }
  - { offsetInCU: 0x4991, offset: 0x2B7F8, size: 0x8, addend: 0x0, symName: __ZNSt3__111make_sharedB7v160006I9AttributeJEvEENS_10shared_ptrIT_EEDpOT0_, symObjAddr: 0x280, symBinAddr: 0x10000EDB0, symSize: 0x40 }
  - { offsetInCU: 0x49BF, offset: 0x2B826, size: 0x8, addend: 0x0, symName: __ZNSt3__111make_sharedB7v160006I9AttributeJRA6_KcEvEENS_10shared_ptrIT_EEDpOT0_, symObjAddr: 0x2C0, symBinAddr: 0x10000EDF0, symSize: 0x40 }
  - { offsetInCU: 0x4A02, offset: 0x2B869, size: 0x8, addend: 0x0, symName: __ZNSt3__111make_sharedB7v160006I9AttributeJRA5_KcEvEENS_10shared_ptrIT_EEDpOT0_, symObjAddr: 0x300, symBinAddr: 0x10000EE30, symSize: 0x40 }
  - { offsetInCU: 0x4A45, offset: 0x2B8AC, size: 0x8, addend: 0x0, symName: __ZNSt3__111make_sharedB7v160006I9AttributeJRA7_KcEvEENS_10shared_ptrIT_EEDpOT0_, symObjAddr: 0x340, symBinAddr: 0x10000EE70, symSize: 0x40 }
  - { offsetInCU: 0x4A88, offset: 0x2B8EF, size: 0x8, addend: 0x0, symName: __ZNSt3__111make_sharedB7v160006I9AttributeJRA4_KcEvEENS_10shared_ptrIT_EEDpOT0_, symObjAddr: 0x380, symBinAddr: 0x10000EEB0, symSize: 0x40 }
  - { offsetInCU: 0x4ACB, offset: 0x2B932, size: 0x8, addend: 0x0, symName: __ZNSt3__119__debug_db_insert_cB7v160006INS_6vectorINS_10shared_ptrI9AttributeEENS_9allocatorIS4_EEEEEEvPT_, symObjAddr: 0x970, symBinAddr: 0x10000F420, symSize: 0x10 }
  - { offsetInCU: 0x4AFC, offset: 0x2B963, size: 0x8, addend: 0x0, symName: __ZNSt3__118__debug_db_erase_cB7v160006INS_6vectorINS_10shared_ptrI9AttributeEENS_9allocatorIS4_EEEEEEvPT_, symObjAddr: 0xBF0, symBinAddr: 0x10000F6A0, symSize: 0x10 }
  - { offsetInCU: 0x4B2D, offset: 0x2B994, size: 0x8, addend: 0x0, symName: __ZNSt3__112__to_addressB7v160006INS_10shared_ptrI9AttributeEEEEPT_S5_, symObjAddr: 0xD00, symBinAddr: 0x10000F7B0, symSize: 0x10 }
  - { offsetInCU: 0x4B62, offset: 0x2B9C9, size: 0x8, addend: 0x0, symName: __ZNSt3__115allocate_sharedB7v160006I9AttributeNS_9allocatorIS1_EEJEvEENS_10shared_ptrIT_EERKT0_DpOT1_, symObjAddr: 0xF60, symBinAddr: 0x10000F990, symSize: 0xA0 }
  - { offsetInCU: 0x4E8F, offset: 0x2BCF6, size: 0x8, addend: 0x0, symName: __ZNSt3__115allocate_sharedB7v160006I9AttributeNS_9allocatorIS1_EEJRA6_KcEvEENS_10shared_ptrIT_EERKT0_DpOT1_, symObjAddr: 0x19F0, symBinAddr: 0x100010260, symSize: 0xB0 }
  - { offsetInCU: 0x4F09, offset: 0x2BD70, size: 0x8, addend: 0x0, symName: __ZNSt3__115allocate_sharedB7v160006I9AttributeNS_9allocatorIS1_EEJRA5_KcEvEENS_10shared_ptrIT_EERKT0_DpOT1_, symObjAddr: 0x1BC0, symBinAddr: 0x100010430, symSize: 0xB0 }
  - { offsetInCU: 0x4F83, offset: 0x2BDEA, size: 0x8, addend: 0x0, symName: __ZNSt3__115allocate_sharedB7v160006I9AttributeNS_9allocatorIS1_EEJRA7_KcEvEENS_10shared_ptrIT_EERKT0_DpOT1_, symObjAddr: 0x1D90, symBinAddr: 0x100010600, symSize: 0xB0 }
  - { offsetInCU: 0x4FFD, offset: 0x2BE64, size: 0x8, addend: 0x0, symName: __ZNSt3__115allocate_sharedB7v160006I9AttributeNS_9allocatorIS1_EEJRA4_KcEvEENS_10shared_ptrIT_EERKT0_DpOT1_, symObjAddr: 0x1F60, symBinAddr: 0x1000107D0, symSize: 0xB0 }
  - { offsetInCU: 0x5077, offset: 0x2BEDE, size: 0x8, addend: 0x0, symName: __ZNSt3__119__allocate_at_leastB7v160006INS_9allocatorINS_10shared_ptrI9AttributeEEEEEENS_19__allocation_resultINS_16allocator_traitsIT_E7pointerEEERS8_m, symObjAddr: 0x2B80, symBinAddr: 0x1000110D0, symSize: 0x40 }
  - { offsetInCU: 0x50BA, offset: 0x2BF21, size: 0x8, addend: 0x0, symName: __ZNSt3__142__uninitialized_allocator_move_if_noexceptB7v160006INS_9allocatorINS_10shared_ptrI9AttributeEEEENS_16reverse_iteratorIPS4_EES8_S8_EET2_RT_T0_T1_S9_, symObjAddr: 0x2D40, symBinAddr: 0x100011290, symSize: 0x190 }
  - { offsetInCU: 0x5159, offset: 0x2BFC0, size: 0x8, addend: 0x0, symName: __ZNSt3__14swapB7v160006IPNS_10shared_ptrI9AttributeEEEEvRT_S6_, symObjAddr: 0x2F20, symBinAddr: 0x100011470, symSize: 0x40 }
  - { offsetInCU: 0x51AA, offset: 0x2C011, size: 0x8, addend: 0x0, symName: __ZNSt3__125__debug_db_invalidate_allB7v160006INS_6vectorINS_10shared_ptrI9AttributeEENS_9allocatorIS4_EEEEEEvPT_, symObjAddr: 0x3010, symBinAddr: 0x100011560, symSize: 0x10 }
  - { offsetInCU: 0x51DB, offset: 0x2C042, size: 0x8, addend: 0x0, symName: __ZNSt3__122__make_exception_guardB7v160006INS_29_AllocatorDestroyRangeReverseINS_9allocatorINS_10shared_ptrI9AttributeEEEENS_16reverse_iteratorIPS5_EEEEEENS_28__exception_guard_exceptionsIT_EESC_, symObjAddr: 0x3020, symBinAddr: 0x100011570, symSize: 0x60 }
  - { offsetInCU: 0x5210, offset: 0x2C077, size: 0x8, addend: 0x0, symName: __ZNSt3__1neB7v160006IPNS_10shared_ptrI9AttributeEES4_EEbRKNS_16reverse_iteratorIT_EERKNS5_IT0_EE, symObjAddr: 0x30C0, symBinAddr: 0x100011610, symSize: 0x40 }
  - { offsetInCU: 0x525C, offset: 0x2C0C3, size: 0x8, addend: 0x0, symName: __ZNSt3__112__to_addressB7v160006INS_16reverse_iteratorIPNS_10shared_ptrI9AttributeEEEEvEENS_5decayIDTclsr19__to_address_helperIT_EE6__callclsr3stdE7declvalIRKS8_EEEEE4typeESA_, symObjAddr: 0x3100, symBinAddr: 0x100011650, symSize: 0x20 }
  - { offsetInCU: 0x52BB, offset: 0x2C122, size: 0x8, addend: 0x0, symName: __ZNSt3__119__allocator_destroyB7v160006INS_9allocatorINS_10shared_ptrI9AttributeEEEENS_16reverse_iteratorINS6_IPS4_EEEES9_EEvRT_T0_T1_, symObjAddr: 0x33F0, symBinAddr: 0x100011940, symSize: 0x70 }
  - { offsetInCU: 0x531E, offset: 0x2C185, size: 0x8, addend: 0x0, symName: __ZNSt3__1neB7v160006INS_16reverse_iteratorIPNS_10shared_ptrI9AttributeEEEES6_EEbRKNS1_IT_EERKNS1_IT0_EE, symObjAddr: 0x3490, symBinAddr: 0x1000119E0, symSize: 0x50 }
  - { offsetInCU: 0x536A, offset: 0x2C1D1, size: 0x8, addend: 0x0, symName: __ZNSt3__112__to_addressB7v160006INS_16reverse_iteratorINS1_IPNS_10shared_ptrI9AttributeEEEEEEvEENS_5decayIDTclsr19__to_address_helperIT_EE6__callclsr3stdE7declvalIRKS9_EEEEE4typeESB_, symObjAddr: 0x34E0, symBinAddr: 0x100011A30, symSize: 0x20 }
  - { offsetInCU: 0x5724, offset: 0x2C58B, size: 0x8, addend: 0x0, symName: __ZNSt3__16vectorINS_10shared_ptrI9AttributeEENS_9allocatorIS3_EEE26__swap_out_circular_bufferERNS_14__split_bufferIS3_RS5_EE, symObjAddr: 0x25E0, symBinAddr: 0x100010D60, symSize: 0x130 }
  - { offsetInCU: 0x762F, offset: 0x2E496, size: 0x8, addend: 0x0, symName: __ZNSt3__16vectorINS_10shared_ptrI9AttributeEENS_9allocatorIS3_EEEC1B7v160006Ev, symObjAddr: 0x0, symBinAddr: 0x10000EB30, symSize: 0x20 }
  - { offsetInCU: 0x7659, offset: 0x2E4C0, size: 0x8, addend: 0x0, symName: __ZNSt3__16vectorINS_10shared_ptrI9AttributeEENS_9allocatorIS3_EEED1B7v160006Ev, symObjAddr: 0x20, symBinAddr: 0x10000EB50, symSize: 0x20 }
  - { offsetInCU: 0x7682, offset: 0x2E4E9, size: 0x8, addend: 0x0, symName: __Z13setAttributesv, symObjAddr: 0x40, symBinAddr: 0x10000EB70, symSize: 0x240 }
  - { offsetInCU: 0x76F3, offset: 0x2E55A, size: 0x8, addend: 0x0, symName: __ZNSt3__16vectorINS_10shared_ptrI9AttributeEENS_9allocatorIS3_EEE9push_backB7v160006ERKS3_, symObjAddr: 0x3C0, symBinAddr: 0x10000EEF0, symSize: 0x60 }
  - { offsetInCU: 0x772B, offset: 0x2E592, size: 0x8, addend: 0x0, symName: __ZN9AttributeC2Ev, symObjAddr: 0x450, symBinAddr: 0x10000EF50, symSize: 0x30 }
  - { offsetInCU: 0x7757, offset: 0x2E5BE, size: 0x8, addend: 0x0, symName: __ZN9AttributeC1Ev, symObjAddr: 0x480, symBinAddr: 0x10000EF80, symSize: 0x20 }
  - { offsetInCU: 0x7783, offset: 0x2E5EA, size: 0x8, addend: 0x0, symName: __ZN9AttributeC2ENSt3__112basic_stringIcNS0_11char_traitsIcEENS0_9allocatorIcEEEE, symObjAddr: 0x4A0, symBinAddr: 0x10000EFA0, symSize: 0x110 }
  - { offsetInCU: 0x77BE, offset: 0x2E625, size: 0x8, addend: 0x0, symName: __ZN9AttributeC1ENSt3__112basic_stringIcNS0_11char_traitsIcEENS0_9allocatorIcEEEE, symObjAddr: 0x5B0, symBinAddr: 0x10000F0B0, symSize: 0x20 }
  - { offsetInCU: 0x77F9, offset: 0x2E660, size: 0x8, addend: 0x0, symName: __ZN9Attribute15attributeEffectENSt3__110shared_ptrIS_EE, symObjAddr: 0x5D0, symBinAddr: 0x10000F0D0, symSize: 0x1B0 }
  - { offsetInCU: 0x7830, offset: 0x2E697, size: 0x8, addend: 0x0, symName: __ZN9Attribute7getNameEv, symObjAddr: 0x7A0, symBinAddr: 0x10000F280, symSize: 0x120 }
  - { offsetInCU: 0x785D, offset: 0x2E6C4, size: 0x8, addend: 0x0, symName: __ZNSt3__16vectorINS_10shared_ptrI9AttributeEENS_9allocatorIS3_EEEC2B7v160006Ev, symObjAddr: 0x8F0, symBinAddr: 0x10000F3A0, symSize: 0x50 }
  - { offsetInCU: 0x7891, offset: 0x2E6F8, size: 0x8, addend: 0x0, symName: __ZNSt3__117__compressed_pairIPNS_10shared_ptrI9AttributeEENS_9allocatorIS3_EEEC1B7v160006IDnNS_18__default_init_tagEEEOT_OT0_, symObjAddr: 0x940, symBinAddr: 0x10000F3F0, symSize: 0x30 }
  - { offsetInCU: 0x78E9, offset: 0x2E750, size: 0x8, addend: 0x0, symName: __ZNSt3__117__compressed_pairIPNS_10shared_ptrI9AttributeEENS_9allocatorIS3_EEEC2B7v160006IDnNS_18__default_init_tagEEEOT_OT0_, symObjAddr: 0x980, symBinAddr: 0x10000F430, symSize: 0x40 }
  - { offsetInCU: 0x7941, offset: 0x2E7A8, size: 0x8, addend: 0x0, symName: __ZNSt3__122__compressed_pair_elemIPNS_10shared_ptrI9AttributeEELi0ELb0EEC2B7v160006IDnvEEOT_, symObjAddr: 0x9C0, symBinAddr: 0x10000F470, symSize: 0x20 }
  - { offsetInCU: 0x7983, offset: 0x2E7EA, size: 0x8, addend: 0x0, symName: __ZNSt3__122__compressed_pair_elemINS_9allocatorINS_10shared_ptrI9AttributeEEEELi1ELb1EEC2B7v160006ENS_18__default_init_tagE, symObjAddr: 0x9E0, symBinAddr: 0x10000F490, symSize: 0x20 }
  - { offsetInCU: 0x79B8, offset: 0x2E81F, size: 0x8, addend: 0x0, symName: __ZNSt3__19allocatorINS_10shared_ptrI9AttributeEEEC2B7v160006Ev, symObjAddr: 0xA00, symBinAddr: 0x10000F4B0, symSize: 0x20 }
  - { offsetInCU: 0x79E2, offset: 0x2E849, size: 0x8, addend: 0x0, symName: __ZNSt3__116__non_trivial_ifILb1ENS_9allocatorINS_10shared_ptrI9AttributeEEEEEC2B7v160006Ev, symObjAddr: 0xA20, symBinAddr: 0x10000F4D0, symSize: 0x10 }
  - { offsetInCU: 0x7A0C, offset: 0x2E873, size: 0x8, addend: 0x0, symName: __ZNSt3__16vectorINS_10shared_ptrI9AttributeEENS_9allocatorIS3_EEED2B7v160006Ev, symObjAddr: 0xA30, symBinAddr: 0x10000F4E0, symSize: 0x30 }
  - { offsetInCU: 0x7A36, offset: 0x2E89D, size: 0x8, addend: 0x0, symName: __ZNSt3__16vectorINS_10shared_ptrI9AttributeEENS_9allocatorIS3_EEE16__destroy_vectorC1ERS6_, symObjAddr: 0xA60, symBinAddr: 0x10000F510, symSize: 0x30 }
  - { offsetInCU: 0x7A6F, offset: 0x2E8D6, size: 0x8, addend: 0x0, symName: __ZNSt3__16vectorINS_10shared_ptrI9AttributeEENS_9allocatorIS3_EEE16__destroy_vectorclB7v160006Ev, symObjAddr: 0xA90, symBinAddr: 0x10000F540, symSize: 0x90 }
  - { offsetInCU: 0x7A95, offset: 0x2E8FC, size: 0x8, addend: 0x0, symName: __ZNSt3__16vectorINS_10shared_ptrI9AttributeEENS_9allocatorIS3_EEE16__destroy_vectorC2ERS6_, symObjAddr: 0xB20, symBinAddr: 0x10000F5D0, symSize: 0x20 }
  - { offsetInCU: 0x7ACE, offset: 0x2E935, size: 0x8, addend: 0x0, symName: __ZNKSt3__16vectorINS_10shared_ptrI9AttributeEENS_9allocatorIS3_EEE17__annotate_deleteB7v160006Ev, symObjAddr: 0xB40, symBinAddr: 0x10000F5F0, symSize: 0xB0 }
  - { offsetInCU: 0x7AF4, offset: 0x2E95B, size: 0x8, addend: 0x0, symName: __ZNSt3__16vectorINS_10shared_ptrI9AttributeEENS_9allocatorIS3_EEE7__clearB7v160006Ev, symObjAddr: 0xC00, symBinAddr: 0x10000F6B0, symSize: 0x20 }
  - { offsetInCU: 0x7B1A, offset: 0x2E981, size: 0x8, addend: 0x0, symName: __ZNSt3__116allocator_traitsINS_9allocatorINS_10shared_ptrI9AttributeEEEEE10deallocateB7v160006ERS5_PS4_m, symObjAddr: 0xC20, symBinAddr: 0x10000F6D0, symSize: 0x30 }
  - { offsetInCU: 0x7B5C, offset: 0x2E9C3, size: 0x8, addend: 0x0, symName: __ZNSt3__16vectorINS_10shared_ptrI9AttributeEENS_9allocatorIS3_EEE7__allocB7v160006Ev, symObjAddr: 0xC50, symBinAddr: 0x10000F700, symSize: 0x20 }
  - { offsetInCU: 0x7B82, offset: 0x2E9E9, size: 0x8, addend: 0x0, symName: __ZNKSt3__16vectorINS_10shared_ptrI9AttributeEENS_9allocatorIS3_EEE8capacityB7v160006Ev, symObjAddr: 0xC70, symBinAddr: 0x10000F720, symSize: 0x30 }
  - { offsetInCU: 0x7BA8, offset: 0x2EA0F, size: 0x8, addend: 0x0, symName: __ZNKSt3__16vectorINS_10shared_ptrI9AttributeEENS_9allocatorIS3_EEE31__annotate_contiguous_containerB7v160006EPKvS8_S8_S8_, symObjAddr: 0xCA0, symBinAddr: 0x10000F750, symSize: 0x20 }
  - { offsetInCU: 0x7BFA, offset: 0x2EA61, size: 0x8, addend: 0x0, symName: __ZNKSt3__16vectorINS_10shared_ptrI9AttributeEENS_9allocatorIS3_EEE4dataB7v160006Ev, symObjAddr: 0xCC0, symBinAddr: 0x10000F770, symSize: 0x20 }
  - { offsetInCU: 0x7C20, offset: 0x2EA87, size: 0x8, addend: 0x0, symName: __ZNKSt3__16vectorINS_10shared_ptrI9AttributeEENS_9allocatorIS3_EEE4sizeB7v160006Ev, symObjAddr: 0xCE0, symBinAddr: 0x10000F790, symSize: 0x20 }
  - { offsetInCU: 0x7C46, offset: 0x2EAAD, size: 0x8, addend: 0x0, symName: __ZNSt3__16vectorINS_10shared_ptrI9AttributeEENS_9allocatorIS3_EEE22__base_destruct_at_endB7v160006EPS3_, symObjAddr: 0xD10, symBinAddr: 0x10000F7C0, symSize: 0x90 }
  - { offsetInCU: 0x7C8A, offset: 0x2EAF1, size: 0x8, addend: 0x0, symName: __ZNSt3__116allocator_traitsINS_9allocatorINS_10shared_ptrI9AttributeEEEEE7destroyB7v160006IS4_vEEvRS5_PT_, symObjAddr: 0xDA0, symBinAddr: 0x10000F850, symSize: 0x30 }
  - { offsetInCU: 0x7CC7, offset: 0x2EB2E, size: 0x8, addend: 0x0, symName: __ZNSt3__19allocatorINS_10shared_ptrI9AttributeEEE7destroyB7v160006EPS3_, symObjAddr: 0xDD0, symBinAddr: 0x10000F880, symSize: 0x20 }
  - { offsetInCU: 0x7CFB, offset: 0x2EB62, size: 0x8, addend: 0x0, symName: __ZNSt3__19allocatorINS_10shared_ptrI9AttributeEEE10deallocateB7v160006EPS3_m, symObjAddr: 0xDF0, symBinAddr: 0x10000F8A0, symSize: 0x70 }
  - { offsetInCU: 0x7D3D, offset: 0x2EBA4, size: 0x8, addend: 0x0, symName: __ZNSt3__117__compressed_pairIPNS_10shared_ptrI9AttributeEENS_9allocatorIS3_EEE6secondB7v160006Ev, symObjAddr: 0xEE0, symBinAddr: 0x10000F910, symSize: 0x20 }
  - { offsetInCU: 0x7D63, offset: 0x2EBCA, size: 0x8, addend: 0x0, symName: __ZNSt3__122__compressed_pair_elemINS_9allocatorINS_10shared_ptrI9AttributeEEEELi1ELb1EE5__getB7v160006Ev, symObjAddr: 0xF00, symBinAddr: 0x10000F930, symSize: 0x10 }
  - { offsetInCU: 0x7D89, offset: 0x2EBF0, size: 0x8, addend: 0x0, symName: __ZNKSt3__16vectorINS_10shared_ptrI9AttributeEENS_9allocatorIS3_EEE9__end_capB7v160006Ev, symObjAddr: 0xF10, symBinAddr: 0x10000F940, symSize: 0x20 }
  - { offsetInCU: 0x7DAF, offset: 0x2EC16, size: 0x8, addend: 0x0, symName: __ZNKSt3__117__compressed_pairIPNS_10shared_ptrI9AttributeEENS_9allocatorIS3_EEE5firstB7v160006Ev, symObjAddr: 0xF30, symBinAddr: 0x10000F960, symSize: 0x20 }
  - { offsetInCU: 0x7DD5, offset: 0x2EC3C, size: 0x8, addend: 0x0, symName: __ZNKSt3__122__compressed_pair_elemIPNS_10shared_ptrI9AttributeEELi0ELb0EE5__getB7v160006Ev, symObjAddr: 0xF50, symBinAddr: 0x10000F980, symSize: 0x10 }
  - { offsetInCU: 0x7DFB, offset: 0x2EC62, size: 0x8, addend: 0x0, symName: __ZNSt3__19allocatorI9AttributeEC1B7v160006Ev, symObjAddr: 0x1000, symBinAddr: 0x10000FA30, symSize: 0x20 }
  - { offsetInCU: 0x7E61, offset: 0x2ECC8, size: 0x8, addend: 0x0, symName: __ZNSt3__118__allocation_guardINS_9allocatorINS_20__shared_ptr_emplaceI9AttributeNS1_IS3_EEEEEEEC1B7v160006IS4_EET_m, symObjAddr: 0x1020, symBinAddr: 0x10000FA50, symSize: 0x30 }
  - { offsetInCU: 0x7EB0, offset: 0x2ED17, size: 0x8, addend: 0x0, symName: __ZNKSt3__118__allocation_guardINS_9allocatorINS_20__shared_ptr_emplaceI9AttributeNS1_IS3_EEEEEEE5__getB7v160006Ev, symObjAddr: 0x1050, symBinAddr: 0x10000FA80, symSize: 0x20 }
  - { offsetInCU: 0x7ED6, offset: 0x2ED3D, size: 0x8, addend: 0x0, symName: __ZNSt3__120__shared_ptr_emplaceI9AttributeNS_9allocatorIS1_EEEC1B7v160006IJEEES3_DpOT_, symObjAddr: 0x1070, symBinAddr: 0x10000FAA0, symSize: 0x20 }
  - { offsetInCU: 0x7F14, offset: 0x2ED7B, size: 0x8, addend: 0x0, symName: __ZNSt3__118__allocation_guardINS_9allocatorINS_20__shared_ptr_emplaceI9AttributeNS1_IS3_EEEEEEE13__release_ptrB7v160006Ev, symObjAddr: 0x1090, symBinAddr: 0x10000FAC0, symSize: 0x30 }
  - { offsetInCU: 0x7F48, offset: 0x2EDAF, size: 0x8, addend: 0x0, symName: __ZNSt3__110shared_ptrI9AttributeE27__create_with_control_blockB7v160006IS1_NS_20__shared_ptr_emplaceIS1_NS_9allocatorIS1_EEEEEES2_PT_PT0_, symObjAddr: 0x10C0, symBinAddr: 0x10000FAF0, symSize: 0x90 }
  - { offsetInCU: 0x7F9D, offset: 0x2EE04, size: 0x8, addend: 0x0, symName: __ZNSt3__120__shared_ptr_emplaceI9AttributeNS_9allocatorIS1_EEE10__get_elemB7v160006Ev, symObjAddr: 0x1150, symBinAddr: 0x10000FB80, symSize: 0x20 }
  - { offsetInCU: 0x7FC3, offset: 0x2EE2A, size: 0x8, addend: 0x0, symName: __ZNSt3__118__allocation_guardINS_9allocatorINS_20__shared_ptr_emplaceI9AttributeNS1_IS3_EEEEEEED1B7v160006Ev, symObjAddr: 0x1170, symBinAddr: 0x10000FBA0, symSize: 0x20 }
  - { offsetInCU: 0x7FED, offset: 0x2EE54, size: 0x8, addend: 0x0, symName: __ZNSt3__118__allocation_guardINS_9allocatorINS_20__shared_ptr_emplaceI9AttributeNS1_IS3_EEEEEEEC2B7v160006IS4_EET_m, symObjAddr: 0x1190, symBinAddr: 0x10000FBC0, symSize: 0x50 }
  - { offsetInCU: 0x803C, offset: 0x2EEA3, size: 0x8, addend: 0x0, symName: __ZNSt3__19allocatorINS_20__shared_ptr_emplaceI9AttributeNS0_IS2_EEEEEC1B7v160006IS2_EERKNS0_IT_EE, symObjAddr: 0x11E0, symBinAddr: 0x10000FC10, symSize: 0x30 }
  - { offsetInCU: 0x807A, offset: 0x2EEE1, size: 0x8, addend: 0x0, symName: __ZNSt3__116allocator_traitsINS_9allocatorINS_20__shared_ptr_emplaceI9AttributeNS1_IS3_EEEEEEE8allocateB7v160006ERS6_m, symObjAddr: 0x1210, symBinAddr: 0x10000FC40, symSize: 0x30 }
  - { offsetInCU: 0x80AD, offset: 0x2EF14, size: 0x8, addend: 0x0, symName: __ZNSt3__19allocatorINS_20__shared_ptr_emplaceI9AttributeNS0_IS2_EEEEEC2B7v160006IS2_EERKNS0_IT_EE, symObjAddr: 0x1240, symBinAddr: 0x10000FC70, symSize: 0x20 }
  - { offsetInCU: 0x80EB, offset: 0x2EF52, size: 0x8, addend: 0x0, symName: __ZNSt3__116__non_trivial_ifILb1ENS_9allocatorINS_20__shared_ptr_emplaceI9AttributeNS1_IS3_EEEEEEEC2B7v160006Ev, symObjAddr: 0x1260, symBinAddr: 0x10000FC90, symSize: 0x10 }
  - { offsetInCU: 0x8115, offset: 0x2EF7C, size: 0x8, addend: 0x0, symName: __ZNSt3__19allocatorINS_20__shared_ptr_emplaceI9AttributeNS0_IS2_EEEEE8allocateB7v160006Em, symObjAddr: 0x1270, symBinAddr: 0x10000FCA0, symSize: 0x80 }
  - { offsetInCU: 0x8153, offset: 0x2EFBA, size: 0x8, addend: 0x0, symName: __ZNSt3__116allocator_traitsINS_9allocatorINS_20__shared_ptr_emplaceI9AttributeNS1_IS3_EEEEEEE8max_sizeB7v160006IS6_vEEmRKS6_, symObjAddr: 0x12F0, symBinAddr: 0x10000FD20, symSize: 0x20 }
  - { offsetInCU: 0x8181, offset: 0x2EFE8, size: 0x8, addend: 0x0, symName: __ZNKSt3__19allocatorINS_20__shared_ptr_emplaceI9AttributeNS0_IS2_EEEEE8max_sizeB7v160006Ev, symObjAddr: 0x1370, symBinAddr: 0x10000FD40, symSize: 0x20 }
  - { offsetInCU: 0x81A7, offset: 0x2F00E, size: 0x8, addend: 0x0, symName: __ZNSt3__120__shared_ptr_emplaceI9AttributeNS_9allocatorIS1_EEEC2B7v160006IJEEES3_DpOT_, symObjAddr: 0x13B0, symBinAddr: 0x10000FD60, symSize: 0x90 }
  - { offsetInCU: 0x81E5, offset: 0x2F04C, size: 0x8, addend: 0x0, symName: __ZNSt3__119__shared_weak_countC2B7v160006El, symObjAddr: 0x1440, symBinAddr: 0x10000FDF0, symSize: 0x50 }
  - { offsetInCU: 0x821D, offset: 0x2F084, size: 0x8, addend: 0x0, symName: __ZNSt3__120__shared_ptr_emplaceI9AttributeNS_9allocatorIS1_EEE8_StorageC1B7v160006EOS3_, symObjAddr: 0x1490, symBinAddr: 0x10000FE40, symSize: 0x30 }
  - { offsetInCU: 0x8256, offset: 0x2F0BD, size: 0x8, addend: 0x0, symName: __ZNSt3__120__shared_ptr_emplaceI9AttributeNS_9allocatorIS1_EEED1Ev, symObjAddr: 0x14C0, symBinAddr: 0x10000FE70, symSize: 0x20 }
  - { offsetInCU: 0x8283, offset: 0x2F0EA, size: 0x8, addend: 0x0, symName: __ZNSt3__120__shared_ptr_emplaceI9AttributeNS_9allocatorIS1_EEED0Ev, symObjAddr: 0x14E0, symBinAddr: 0x10000FE90, symSize: 0x50 }
  - { offsetInCU: 0x82B0, offset: 0x2F117, size: 0x8, addend: 0x0, symName: __ZNSt3__120__shared_ptr_emplaceI9AttributeNS_9allocatorIS1_EEE16__on_zero_sharedEv, symObjAddr: 0x1530, symBinAddr: 0x10000FEE0, symSize: 0x20 }
  - { offsetInCU: 0x82D6, offset: 0x2F13D, size: 0x8, addend: 0x0, symName: __ZNSt3__120__shared_ptr_emplaceI9AttributeNS_9allocatorIS1_EEE21__on_zero_shared_weakEv, symObjAddr: 0x1550, symBinAddr: 0x10000FF00, symSize: 0x70 }
  - { offsetInCU: 0x8317, offset: 0x2F17E, size: 0x8, addend: 0x0, symName: __ZNSt3__114__shared_countC2B7v160006El, symObjAddr: 0x15C0, symBinAddr: 0x10000FF70, symSize: 0x30 }
  - { offsetInCU: 0x834F, offset: 0x2F1B6, size: 0x8, addend: 0x0, symName: __ZNSt3__120__shared_ptr_emplaceI9AttributeNS_9allocatorIS1_EEE8_StorageC2B7v160006EOS3_, symObjAddr: 0x15F0, symBinAddr: 0x10000FFA0, symSize: 0x20 }
  - { offsetInCU: 0x8388, offset: 0x2F1EF, size: 0x8, addend: 0x0, symName: __ZNSt3__120__shared_ptr_emplaceI9AttributeNS_9allocatorIS1_EEE8_Storage11__get_allocEv, symObjAddr: 0x1610, symBinAddr: 0x10000FFC0, symSize: 0x40 }
  - { offsetInCU: 0x83DB, offset: 0x2F242, size: 0x8, addend: 0x0, symName: __ZNSt3__117__compressed_pairINS_9allocatorI9AttributeEES2_E16__get_first_baseB7v160006EPS4_, symObjAddr: 0x1650, symBinAddr: 0x100010000, symSize: 0x10 }
  - { offsetInCU: 0x83FE, offset: 0x2F265, size: 0x8, addend: 0x0, symName: __ZNSt3__120__shared_ptr_emplaceI9AttributeNS_9allocatorIS1_EEED2Ev, symObjAddr: 0x1660, symBinAddr: 0x100010010, symSize: 0x70 }
  - { offsetInCU: 0x842B, offset: 0x2F292, size: 0x8, addend: 0x0, symName: __ZNSt3__120__shared_ptr_emplaceI9AttributeNS_9allocatorIS1_EEE8_StorageD1B7v160006Ev, symObjAddr: 0x16D0, symBinAddr: 0x100010080, symSize: 0x20 }
  - { offsetInCU: 0x8455, offset: 0x2F2BC, size: 0x8, addend: 0x0, symName: __ZNSt3__120__shared_ptr_emplaceI9AttributeNS_9allocatorIS1_EEE8_StorageD2B7v160006Ev, symObjAddr: 0x16F0, symBinAddr: 0x1000100A0, symSize: 0x20 }
  - { offsetInCU: 0x847F, offset: 0x2F2E6, size: 0x8, addend: 0x0, symName: __ZNSt3__120__shared_ptr_emplaceI9AttributeNS_9allocatorIS1_EEE11__get_allocB7v160006Ev, symObjAddr: 0x1710, symBinAddr: 0x1000100C0, symSize: 0x20 }
  - { offsetInCU: 0x84A5, offset: 0x2F30C, size: 0x8, addend: 0x0, symName: __ZNSt3__116allocator_traitsINS_9allocatorINS_20__shared_ptr_emplaceI9AttributeNS1_IS3_EEEEEEE10deallocateB7v160006ERS6_PS5_m, symObjAddr: 0x1730, symBinAddr: 0x1000100E0, symSize: 0x30 }
  - { offsetInCU: 0x84E7, offset: 0x2F34E, size: 0x8, addend: 0x0, symName: __ZNSt3__114pointer_traitsIPNS_20__shared_ptr_emplaceI9AttributeNS_9allocatorIS2_EEEEE10pointer_toB7v160006ERS5_, symObjAddr: 0x1760, symBinAddr: 0x100010110, symSize: 0x10 }
  - { offsetInCU: 0x850A, offset: 0x2F371, size: 0x8, addend: 0x0, symName: __ZNSt3__19allocatorINS_20__shared_ptr_emplaceI9AttributeNS0_IS2_EEEEE10deallocateB7v160006EPS4_m, symObjAddr: 0x1770, symBinAddr: 0x100010120, symSize: 0x70 }
  - { offsetInCU: 0x854C, offset: 0x2F3B3, size: 0x8, addend: 0x0, symName: __ZNSt3__110shared_ptrI9AttributeE18__enable_weak_thisB7v160006Ez, symObjAddr: 0x1800, symBinAddr: 0x100010190, symSize: 0x10 }
  - { offsetInCU: 0x8573, offset: 0x2F3DA, size: 0x8, addend: 0x0, symName: __ZNSt3__120__shared_ptr_emplaceI9AttributeNS_9allocatorIS1_EEE8_Storage10__get_elemEv, symObjAddr: 0x1830, symBinAddr: 0x1000101A0, symSize: 0x40 }
  - { offsetInCU: 0x85C6, offset: 0x2F42D, size: 0x8, addend: 0x0, symName: __ZNSt3__117__compressed_pairINS_9allocatorI9AttributeEES2_E17__get_second_baseB7v160006EPS4_, symObjAddr: 0x1870, symBinAddr: 0x1000101E0, symSize: 0x10 }
  - { offsetInCU: 0x85E9, offset: 0x2F450, size: 0x8, addend: 0x0, symName: __ZNSt3__118__allocation_guardINS_9allocatorINS_20__shared_ptr_emplaceI9AttributeNS1_IS3_EEEEEEED2B7v160006Ev, symObjAddr: 0x1880, symBinAddr: 0x1000101F0, symSize: 0x40 }
  - { offsetInCU: 0x8613, offset: 0x2F47A, size: 0x8, addend: 0x0, symName: __ZNSt3__19allocatorI9AttributeEC2B7v160006Ev, symObjAddr: 0x18C0, symBinAddr: 0x100010230, symSize: 0x20 }
  - { offsetInCU: 0x863D, offset: 0x2F4A4, size: 0x8, addend: 0x0, symName: __ZNSt3__116__non_trivial_ifILb1ENS_9allocatorI9AttributeEEEC2B7v160006Ev, symObjAddr: 0x18E0, symBinAddr: 0x100010250, symSize: 0x10 }
  - { offsetInCU: 0x867D, offset: 0x2F4E4, size: 0x8, addend: 0x0, symName: __ZNSt3__120__shared_ptr_emplaceI9AttributeNS_9allocatorIS1_EEEC1B7v160006IJRA6_KcEEES3_DpOT_, symObjAddr: 0x1AA0, symBinAddr: 0x100010310, symSize: 0x30 }
  - { offsetInCU: 0x86D0, offset: 0x2F537, size: 0x8, addend: 0x0, symName: __ZNSt3__120__shared_ptr_emplaceI9AttributeNS_9allocatorIS1_EEEC2B7v160006IJRA6_KcEEES3_DpOT_, symObjAddr: 0x1AD0, symBinAddr: 0x100010340, symSize: 0xF0 }
  - { offsetInCU: 0x872D, offset: 0x2F594, size: 0x8, addend: 0x0, symName: __ZNSt3__120__shared_ptr_emplaceI9AttributeNS_9allocatorIS1_EEEC1B7v160006IJRA5_KcEEES3_DpOT_, symObjAddr: 0x1C70, symBinAddr: 0x1000104E0, symSize: 0x30 }
  - { offsetInCU: 0x8780, offset: 0x2F5E7, size: 0x8, addend: 0x0, symName: __ZNSt3__120__shared_ptr_emplaceI9AttributeNS_9allocatorIS1_EEEC2B7v160006IJRA5_KcEEES3_DpOT_, symObjAddr: 0x1CA0, symBinAddr: 0x100010510, symSize: 0xF0 }
  - { offsetInCU: 0x87E9, offset: 0x2F650, size: 0x8, addend: 0x0, symName: __ZNSt3__120__shared_ptr_emplaceI9AttributeNS_9allocatorIS1_EEEC1B7v160006IJRA7_KcEEES3_DpOT_, symObjAddr: 0x1E40, symBinAddr: 0x1000106B0, symSize: 0x30 }
  - { offsetInCU: 0x883C, offset: 0x2F6A3, size: 0x8, addend: 0x0, symName: __ZNSt3__120__shared_ptr_emplaceI9AttributeNS_9allocatorIS1_EEEC2B7v160006IJRA7_KcEEES3_DpOT_, symObjAddr: 0x1E70, symBinAddr: 0x1000106E0, symSize: 0xF0 }
  - { offsetInCU: 0x88A5, offset: 0x2F70C, size: 0x8, addend: 0x0, symName: __ZNSt3__120__shared_ptr_emplaceI9AttributeNS_9allocatorIS1_EEEC1B7v160006IJRA4_KcEEES3_DpOT_, symObjAddr: 0x2010, symBinAddr: 0x100010880, symSize: 0x30 }
  - { offsetInCU: 0x88F8, offset: 0x2F75F, size: 0x8, addend: 0x0, symName: __ZNSt3__120__shared_ptr_emplaceI9AttributeNS_9allocatorIS1_EEEC2B7v160006IJRA4_KcEEES3_DpOT_, symObjAddr: 0x2040, symBinAddr: 0x1000108B0, symSize: 0xF0 }
  - { offsetInCU: 0x894B, offset: 0x2F7B2, size: 0x8, addend: 0x0, symName: __ZNSt3__16vectorINS_10shared_ptrI9AttributeEENS_9allocatorIS3_EEE9__end_capB7v160006Ev, symObjAddr: 0x2130, symBinAddr: 0x1000109A0, symSize: 0x20 }
  - { offsetInCU: 0x8971, offset: 0x2F7D8, size: 0x8, addend: 0x0, symName: __ZNSt3__16vectorINS_10shared_ptrI9AttributeEENS_9allocatorIS3_EEE22__construct_one_at_endB7v160006IJRKS3_EEEvDpOT_, symObjAddr: 0x2150, symBinAddr: 0x1000109C0, symSize: 0xA0 }
  - { offsetInCU: 0x89BF, offset: 0x2F826, size: 0x8, addend: 0x0, symName: __ZNSt3__16vectorINS_10shared_ptrI9AttributeEENS_9allocatorIS3_EEE21__push_back_slow_pathIRKS3_EEvOT_, symObjAddr: 0x21F0, symBinAddr: 0x100010A60, symSize: 0xE0 }
  - { offsetInCU: 0x8A1E, offset: 0x2F885, size: 0x8, addend: 0x0, symName: __ZNSt3__117__compressed_pairIPNS_10shared_ptrI9AttributeEENS_9allocatorIS3_EEE5firstB7v160006Ev, symObjAddr: 0x22D0, symBinAddr: 0x100010B40, symSize: 0x20 }
  - { offsetInCU: 0x8A44, offset: 0x2F8AB, size: 0x8, addend: 0x0, symName: __ZNSt3__122__compressed_pair_elemIPNS_10shared_ptrI9AttributeEELi0ELb0EE5__getB7v160006Ev, symObjAddr: 0x22F0, symBinAddr: 0x100010B60, symSize: 0x10 }
  - { offsetInCU: 0x8A83, offset: 0x2F8EA, size: 0x8, addend: 0x0, symName: __ZNSt3__16vectorINS_10shared_ptrI9AttributeEENS_9allocatorIS3_EEE21_ConstructTransactionC1B7v160006ERS6_m, symObjAddr: 0x2300, symBinAddr: 0x100010B70, symSize: 0x30 }
  - { offsetInCU: 0x8ACB, offset: 0x2F932, size: 0x8, addend: 0x0, symName: __ZNSt3__116allocator_traitsINS_9allocatorINS_10shared_ptrI9AttributeEEEEE9constructB7v160006IS4_JRKS4_EvEEvRS5_PT_DpOT0_, symObjAddr: 0x2330, symBinAddr: 0x100010BA0, symSize: 0x30 }
  - { offsetInCU: 0x8B22, offset: 0x2F989, size: 0x8, addend: 0x0, symName: __ZNSt3__16vectorINS_10shared_ptrI9AttributeEENS_9allocatorIS3_EEE21_ConstructTransactionD1B7v160006Ev, symObjAddr: 0x2360, symBinAddr: 0x100010BD0, symSize: 0x20 }
  - { offsetInCU: 0x8B4C, offset: 0x2F9B3, size: 0x8, addend: 0x0, symName: __ZNSt3__16vectorINS_10shared_ptrI9AttributeEENS_9allocatorIS3_EEE21_ConstructTransactionC2B7v160006ERS6_m, symObjAddr: 0x2380, symBinAddr: 0x100010BF0, symSize: 0x40 }
  - { offsetInCU: 0x8B94, offset: 0x2F9FB, size: 0x8, addend: 0x0, symName: __ZNSt3__19allocatorINS_10shared_ptrI9AttributeEEE9constructB7v160006IS3_JRKS3_EEEvPT_DpOT0_, symObjAddr: 0x23C0, symBinAddr: 0x100010C30, symSize: 0x30 }
  - { offsetInCU: 0x8BEA, offset: 0x2FA51, size: 0x8, addend: 0x0, symName: __ZNSt3__16vectorINS_10shared_ptrI9AttributeEENS_9allocatorIS3_EEE21_ConstructTransactionD2B7v160006Ev, symObjAddr: 0x24E0, symBinAddr: 0x100010C60, symSize: 0x20 }
  - { offsetInCU: 0x8C13, offset: 0x2FA7A, size: 0x8, addend: 0x0, symName: __ZNKSt3__16vectorINS_10shared_ptrI9AttributeEENS_9allocatorIS3_EEE11__recommendB7v160006Em, symObjAddr: 0x2500, symBinAddr: 0x100010C80, symSize: 0xA0 }
  - { offsetInCU: 0x8C69, offset: 0x2FAD0, size: 0x8, addend: 0x0, symName: __ZNSt3__114__split_bufferINS_10shared_ptrI9AttributeEERNS_9allocatorIS3_EEEC1EmmS6_, symObjAddr: 0x25A0, symBinAddr: 0x100010D20, symSize: 0x40 }
  - { offsetInCU: 0x8CBF, offset: 0x2FB26, size: 0x8, addend: 0x0, symName: __ZNSt3__114__split_bufferINS_10shared_ptrI9AttributeEERNS_9allocatorIS3_EEED1Ev, symObjAddr: 0x2710, symBinAddr: 0x100010E90, symSize: 0x20 }
  - { offsetInCU: 0x8CEA, offset: 0x2FB51, size: 0x8, addend: 0x0, symName: __ZNKSt3__16vectorINS_10shared_ptrI9AttributeEENS_9allocatorIS3_EEE8max_sizeEv, symObjAddr: 0x2730, symBinAddr: 0x100010EB0, symSize: 0x70 }
  - { offsetInCU: 0x8D13, offset: 0x2FB7A, size: 0x8, addend: 0x0, symName: __ZNKSt3__16vectorINS_10shared_ptrI9AttributeEENS_9allocatorIS3_EEE20__throw_length_errorB7v160006Ev, symObjAddr: 0x27A0, symBinAddr: 0x100010F20, symSize: 0x20 }
  - { offsetInCU: 0x8D43, offset: 0x2FBAA, size: 0x8, addend: 0x0, symName: __ZNSt3__116allocator_traitsINS_9allocatorINS_10shared_ptrI9AttributeEEEEE8max_sizeB7v160006IS5_vEEmRKS5_, symObjAddr: 0x2820, symBinAddr: 0x100010F40, symSize: 0x20 }
  - { offsetInCU: 0x8D71, offset: 0x2FBD8, size: 0x8, addend: 0x0, symName: __ZNKSt3__16vectorINS_10shared_ptrI9AttributeEENS_9allocatorIS3_EEE7__allocB7v160006Ev, symObjAddr: 0x2840, symBinAddr: 0x100010F60, symSize: 0x20 }
  - { offsetInCU: 0x8D97, offset: 0x2FBFE, size: 0x8, addend: 0x0, symName: __ZNKSt3__19allocatorINS_10shared_ptrI9AttributeEEE8max_sizeB7v160006Ev, symObjAddr: 0x28F0, symBinAddr: 0x100010F80, symSize: 0x20 }
  - { offsetInCU: 0x8DBD, offset: 0x2FC24, size: 0x8, addend: 0x0, symName: __ZNKSt3__117__compressed_pairIPNS_10shared_ptrI9AttributeEENS_9allocatorIS3_EEE6secondB7v160006Ev, symObjAddr: 0x2910, symBinAddr: 0x100010FA0, symSize: 0x20 }
  - { offsetInCU: 0x8DE3, offset: 0x2FC4A, size: 0x8, addend: 0x0, symName: __ZNKSt3__122__compressed_pair_elemINS_9allocatorINS_10shared_ptrI9AttributeEEEELi1ELb1EE5__getB7v160006Ev, symObjAddr: 0x2930, symBinAddr: 0x100010FC0, symSize: 0x10 }
  - { offsetInCU: 0x8E09, offset: 0x2FC70, size: 0x8, addend: 0x0, symName: __ZNSt3__114__split_bufferINS_10shared_ptrI9AttributeEERNS_9allocatorIS3_EEEC2EmmS6_, symObjAddr: 0x2A80, symBinAddr: 0x100010FD0, symSize: 0xD0 }
  - { offsetInCU: 0x8E7C, offset: 0x2FCE3, size: 0x8, addend: 0x0, symName: __ZNSt3__117__compressed_pairIPNS_10shared_ptrI9AttributeEERNS_9allocatorIS3_EEEC1B7v160006IDnS7_EEOT_OT0_, symObjAddr: 0x2B50, symBinAddr: 0x1000110A0, symSize: 0x30 }
  - { offsetInCU: 0x8ED4, offset: 0x2FD3B, size: 0x8, addend: 0x0, symName: __ZNSt3__114__split_bufferINS_10shared_ptrI9AttributeEERNS_9allocatorIS3_EEE7__allocB7v160006Ev, symObjAddr: 0x2BC0, symBinAddr: 0x100011110, symSize: 0x20 }
  - { offsetInCU: 0x8EFA, offset: 0x2FD61, size: 0x8, addend: 0x0, symName: __ZNSt3__114__split_bufferINS_10shared_ptrI9AttributeEERNS_9allocatorIS3_EEE9__end_capB7v160006Ev, symObjAddr: 0x2BE0, symBinAddr: 0x100011130, symSize: 0x20 }
  - { offsetInCU: 0x8F20, offset: 0x2FD87, size: 0x8, addend: 0x0, symName: __ZNSt3__117__compressed_pairIPNS_10shared_ptrI9AttributeEERNS_9allocatorIS3_EEEC2B7v160006IDnS7_EEOT_OT0_, symObjAddr: 0x2C00, symBinAddr: 0x100011150, symSize: 0x40 }
  - { offsetInCU: 0x8F78, offset: 0x2FDDF, size: 0x8, addend: 0x0, symName: __ZNSt3__122__compressed_pair_elemIRNS_9allocatorINS_10shared_ptrI9AttributeEEEELi1ELb0EEC2B7v160006IS6_vEEOT_, symObjAddr: 0x2C40, symBinAddr: 0x100011190, symSize: 0x20 }
  - { offsetInCU: 0x8FBA, offset: 0x2FE21, size: 0x8, addend: 0x0, symName: __ZNSt3__19allocatorINS_10shared_ptrI9AttributeEEE8allocateB7v160006Em, symObjAddr: 0x2C60, symBinAddr: 0x1000111B0, symSize: 0x80 }
  - { offsetInCU: 0x8FEE, offset: 0x2FE55, size: 0x8, addend: 0x0, symName: __ZNSt3__117__compressed_pairIPNS_10shared_ptrI9AttributeEERNS_9allocatorIS3_EEE6secondB7v160006Ev, symObjAddr: 0x2CE0, symBinAddr: 0x100011230, symSize: 0x20 }
  - { offsetInCU: 0x9014, offset: 0x2FE7B, size: 0x8, addend: 0x0, symName: __ZNSt3__122__compressed_pair_elemIRNS_9allocatorINS_10shared_ptrI9AttributeEEEELi1ELb0EE5__getB7v160006Ev, symObjAddr: 0x2D00, symBinAddr: 0x100011250, symSize: 0x20 }
  - { offsetInCU: 0x903A, offset: 0x2FEA1, size: 0x8, addend: 0x0, symName: __ZNSt3__117__compressed_pairIPNS_10shared_ptrI9AttributeEERNS_9allocatorIS3_EEE5firstB7v160006Ev, symObjAddr: 0x2D20, symBinAddr: 0x100011270, symSize: 0x20 }
  - { offsetInCU: 0x9060, offset: 0x2FEC7, size: 0x8, addend: 0x0, symName: __ZNSt3__116reverse_iteratorIPNS_10shared_ptrI9AttributeEEEC1B7v160006ES4_, symObjAddr: 0x2ED0, symBinAddr: 0x100011420, symSize: 0x30 }
  - { offsetInCU: 0x9098, offset: 0x2FEFF, size: 0x8, addend: 0x0, symName: __ZNKSt3__116reverse_iteratorIPNS_10shared_ptrI9AttributeEEE4baseB7v160006Ev, symObjAddr: 0x2F00, symBinAddr: 0x100011450, symSize: 0x20 }
  - { offsetInCU: 0x90BE, offset: 0x2FF25, size: 0x8, addend: 0x0, symName: __ZNKSt3__16vectorINS_10shared_ptrI9AttributeEENS_9allocatorIS3_EEE14__annotate_newB7v160006Em, symObjAddr: 0x2F60, symBinAddr: 0x1000114B0, symSize: 0xB0 }
  - { offsetInCU: 0x90F3, offset: 0x2FF5A, size: 0x8, addend: 0x0, symName: __ZNSt3__129_AllocatorDestroyRangeReverseINS_9allocatorINS_10shared_ptrI9AttributeEEEENS_16reverse_iteratorIPS4_EEEC1B7v160006ERS5_RS8_SB_, symObjAddr: 0x3080, symBinAddr: 0x1000115D0, symSize: 0x40 }
  - { offsetInCU: 0x914A, offset: 0x2FFB1, size: 0x8, addend: 0x0, symName: __ZNKSt3__116reverse_iteratorIPNS_10shared_ptrI9AttributeEEEdeB7v160006Ev, symObjAddr: 0x3120, symBinAddr: 0x100011670, symSize: 0x30 }
  - { offsetInCU: 0x917E, offset: 0x2FFE5, size: 0x8, addend: 0x0, symName: __ZNSt3__116reverse_iteratorIPNS_10shared_ptrI9AttributeEEEppB7v160006Ev, symObjAddr: 0x3150, symBinAddr: 0x1000116A0, symSize: 0x20 }
  - { offsetInCU: 0x91A4, offset: 0x3000B, size: 0x8, addend: 0x0, symName: __ZNSt3__128__exception_guard_exceptionsINS_29_AllocatorDestroyRangeReverseINS_9allocatorINS_10shared_ptrI9AttributeEEEENS_16reverse_iteratorIPS5_EEEEE10__completeB7v160006Ev, symObjAddr: 0x3170, symBinAddr: 0x1000116C0, symSize: 0x20 }
  - { offsetInCU: 0x91CA, offset: 0x30031, size: 0x8, addend: 0x0, symName: __ZNSt3__128__exception_guard_exceptionsINS_29_AllocatorDestroyRangeReverseINS_9allocatorINS_10shared_ptrI9AttributeEEEENS_16reverse_iteratorIPS5_EEEEED1B7v160006Ev, symObjAddr: 0x3190, symBinAddr: 0x1000116E0, symSize: 0x20 }
  - { offsetInCU: 0x91F4, offset: 0x3005B, size: 0x8, addend: 0x0, symName: __ZNSt3__128__exception_guard_exceptionsINS_29_AllocatorDestroyRangeReverseINS_9allocatorINS_10shared_ptrI9AttributeEEEENS_16reverse_iteratorIPS5_EEEEEC1B7v160006ESA_, symObjAddr: 0x31B0, symBinAddr: 0x100011700, symSize: 0x40 }
  - { offsetInCU: 0x922C, offset: 0x30093, size: 0x8, addend: 0x0, symName: __ZNSt3__128__exception_guard_exceptionsINS_29_AllocatorDestroyRangeReverseINS_9allocatorINS_10shared_ptrI9AttributeEEEENS_16reverse_iteratorIPS5_EEEEEC2B7v160006ESA_, symObjAddr: 0x31F0, symBinAddr: 0x100011740, symSize: 0x30 }
  - { offsetInCU: 0x9264, offset: 0x300CB, size: 0x8, addend: 0x0, symName: __ZNSt3__129_AllocatorDestroyRangeReverseINS_9allocatorINS_10shared_ptrI9AttributeEEEENS_16reverse_iteratorIPS4_EEEC2B7v160006ERS5_RS8_SB_, symObjAddr: 0x3220, symBinAddr: 0x100011770, symSize: 0x40 }
  - { offsetInCU: 0x92C0, offset: 0x30127, size: 0x8, addend: 0x0, symName: __ZNSt3__119__to_address_helperINS_16reverse_iteratorIPNS_10shared_ptrI9AttributeEEEEvE6__callB7v160006ERKS6_, symObjAddr: 0x3260, symBinAddr: 0x1000117B0, symSize: 0x50 }
  - { offsetInCU: 0x92E3, offset: 0x3014A, size: 0x8, addend: 0x0, symName: __ZNKSt3__116reverse_iteratorIPNS_10shared_ptrI9AttributeEEEptB7v160006Ev, symObjAddr: 0x32B0, symBinAddr: 0x100011800, symSize: 0x20 }
  - { offsetInCU: 0x9309, offset: 0x30170, size: 0x8, addend: 0x0, symName: __ZNSt3__128__exception_guard_exceptionsINS_29_AllocatorDestroyRangeReverseINS_9allocatorINS_10shared_ptrI9AttributeEEEENS_16reverse_iteratorIPS5_EEEEED2B7v160006Ev, symObjAddr: 0x32D0, symBinAddr: 0x100011820, symSize: 0x30 }
  - { offsetInCU: 0x9333, offset: 0x3019A, size: 0x8, addend: 0x0, symName: __ZNKSt3__129_AllocatorDestroyRangeReverseINS_9allocatorINS_10shared_ptrI9AttributeEEEENS_16reverse_iteratorIPS4_EEEclB7v160006Ev, symObjAddr: 0x3300, symBinAddr: 0x100011850, symSize: 0xF0 }
  - { offsetInCU: 0x935A, offset: 0x301C1, size: 0x8, addend: 0x0, symName: __ZNSt3__116reverse_iteratorINS0_IPNS_10shared_ptrI9AttributeEEEEEC1B7v160006ES5_, symObjAddr: 0x3460, symBinAddr: 0x1000119B0, symSize: 0x30 }
  - { offsetInCU: 0x9392, offset: 0x301F9, size: 0x8, addend: 0x0, symName: __ZNSt3__116reverse_iteratorINS0_IPNS_10shared_ptrI9AttributeEEEEEppB7v160006Ev, symObjAddr: 0x3500, symBinAddr: 0x100011A50, symSize: 0x30 }
  - { offsetInCU: 0x93B8, offset: 0x3021F, size: 0x8, addend: 0x0, symName: __ZNKSt3__116reverse_iteratorINS0_IPNS_10shared_ptrI9AttributeEEEEE4baseB7v160006Ev, symObjAddr: 0x3530, symBinAddr: 0x100011A80, symSize: 0x20 }
  - { offsetInCU: 0x93E3, offset: 0x3024A, size: 0x8, addend: 0x0, symName: __ZNSt3__119__to_address_helperINS_16reverse_iteratorINS1_IPNS_10shared_ptrI9AttributeEEEEEEvE6__callB7v160006ERKS7_, symObjAddr: 0x3550, symBinAddr: 0x100011AA0, symSize: 0x50 }
  - { offsetInCU: 0x9406, offset: 0x3026D, size: 0x8, addend: 0x0, symName: __ZNKSt3__116reverse_iteratorINS0_IPNS_10shared_ptrI9AttributeEEEEEptB7v160006Ev, symObjAddr: 0x35A0, symBinAddr: 0x100011AF0, symSize: 0x20 }
  - { offsetInCU: 0x942C, offset: 0x30293, size: 0x8, addend: 0x0, symName: __ZNKSt3__116reverse_iteratorINS0_IPNS_10shared_ptrI9AttributeEEEEEdeB7v160006Ev, symObjAddr: 0x35C0, symBinAddr: 0x100011B10, symSize: 0x40 }
  - { offsetInCU: 0x9460, offset: 0x302C7, size: 0x8, addend: 0x0, symName: __ZNSt3__116reverse_iteratorIPNS_10shared_ptrI9AttributeEEEmmB7v160006Ev, symObjAddr: 0x3600, symBinAddr: 0x100011B50, symSize: 0x20 }
  - { offsetInCU: 0x9486, offset: 0x302ED, size: 0x8, addend: 0x0, symName: __ZNSt3__116reverse_iteratorINS0_IPNS_10shared_ptrI9AttributeEEEEEC2B7v160006ES5_, symObjAddr: 0x3620, symBinAddr: 0x100011B70, symSize: 0x40 }
  - { offsetInCU: 0x94BE, offset: 0x30325, size: 0x8, addend: 0x0, symName: __ZNSt3__116reverse_iteratorIPNS_10shared_ptrI9AttributeEEEC2B7v160006ES4_, symObjAddr: 0x3660, symBinAddr: 0x100011BB0, symSize: 0x30 }
  - { offsetInCU: 0x94F6, offset: 0x3035D, size: 0x8, addend: 0x0, symName: __ZNSt3__114__split_bufferINS_10shared_ptrI9AttributeEERNS_9allocatorIS3_EEED2Ev, symObjAddr: 0x3690, symBinAddr: 0x100011BE0, symSize: 0x60 }
  - { offsetInCU: 0x9522, offset: 0x30389, size: 0x8, addend: 0x0, symName: __ZNSt3__114__split_bufferINS_10shared_ptrI9AttributeEERNS_9allocatorIS3_EEE5clearB7v160006Ev, symObjAddr: 0x36F0, symBinAddr: 0x100011C40, symSize: 0x20 }
  - { offsetInCU: 0x9548, offset: 0x303AF, size: 0x8, addend: 0x0, symName: __ZNKSt3__114__split_bufferINS_10shared_ptrI9AttributeEERNS_9allocatorIS3_EEE8capacityB7v160006Ev, symObjAddr: 0x3710, symBinAddr: 0x100011C60, symSize: 0x30 }
  - { offsetInCU: 0x956E, offset: 0x303D5, size: 0x8, addend: 0x0, symName: __ZNSt3__114__split_bufferINS_10shared_ptrI9AttributeEERNS_9allocatorIS3_EEE17__destruct_at_endB7v160006EPS3_, symObjAddr: 0x3740, symBinAddr: 0x100011C90, symSize: 0x30 }
  - { offsetInCU: 0x95A1, offset: 0x30408, size: 0x8, addend: 0x0, symName: __ZNSt3__114__split_bufferINS_10shared_ptrI9AttributeEERNS_9allocatorIS3_EEE17__destruct_at_endB7v160006EPS3_NS_17integral_constantIbLb0EEE, symObjAddr: 0x3770, symBinAddr: 0x100011CC0, symSize: 0x80 }
  - { offsetInCU: 0x95E3, offset: 0x3044A, size: 0x8, addend: 0x0, symName: __ZNKSt3__114__split_bufferINS_10shared_ptrI9AttributeEERNS_9allocatorIS3_EEE9__end_capB7v160006Ev, symObjAddr: 0x37F0, symBinAddr: 0x100011D40, symSize: 0x20 }
  - { offsetInCU: 0x9609, offset: 0x30470, size: 0x8, addend: 0x0, symName: __ZNKSt3__117__compressed_pairIPNS_10shared_ptrI9AttributeEERNS_9allocatorIS3_EEE5firstB7v160006Ev, symObjAddr: 0x3810, symBinAddr: 0x100011D60, symSize: 0x20 }
  - { offsetInCU: 0x3F, offset: 0x30565, size: 0x8, addend: 0x0, symName: _difficulty, symObjAddr: 0xCCC8, symBinAddr: 0x100030000, symSize: 0x0 }
  - { offsetInCU: 0x3FB2, offset: 0x344D8, size: 0x8, addend: 0x0, symName: __ZNSt3__16chronomlB7v160006IdNS_5ratioILl1ELl1000EEEiEENS_9enable_ifIXsr14is_convertibleIT1_NS_11common_typeIJT_S5_EE4typeEEE5valueENS0_8durationIS9_T0_EEE4typeERKNSA_IS7_SB_EERKS5_, symObjAddr: 0xAA40, symBinAddr: 0x100018E50, symSize: 0x60 }
  - { offsetInCU: 0x49B9, offset: 0x34EDF, size: 0x8, addend: 0x0, symName: __ZNSt3__16chronogeB7v160006IdNS_5ratioILl1ELl1000EEExNS2_ILl1ELl1EEEEEbRKNS0_8durationIT_T0_EERKNS5_IT1_T2_EE, symObjAddr: 0x1C40, symBinAddr: 0x100013840, symSize: 0x30 }
  - { offsetInCU: 0x4A1A, offset: 0x34F40, size: 0x8, addend: 0x0, symName: __ZNSt3__16chronomlB7v160006IiNS_5ratioILl1ELl1000EEEdEENS_9enable_ifIXsr14is_convertibleIT_NS_11common_typeIJS5_T1_EE4typeEEE5valueENS0_8durationIS9_T0_EEE4typeERKS5_RKNSA_IS7_SB_EE, symObjAddr: 0x2420, symBinAddr: 0x100013FA0, symSize: 0x30 }
  - { offsetInCU: 0x4A72, offset: 0x34F98, size: 0x8, addend: 0x0, symName: __ZNSt3__16chronoltB7v160006IdNS_5ratioILl1ELl1000EEExNS2_ILl1ELl1EEEEEbRKNS0_8durationIT_T0_EERKNS5_IT1_T2_EE, symObjAddr: 0x9E60, symBinAddr: 0x100018270, symSize: 0x30 }
  - { offsetInCU: 0x4AD3, offset: 0x34FF9, size: 0x8, addend: 0x0, symName: __ZNSt3__16chrono13duration_castB7v160006INS0_8durationIdNS_5ratioILl1ELl1000EEEEExNS3_ILl1ELl1EEEEENS_9enable_ifIXsr13__is_durationIT_EE5valueES8_E4typeERKNS2_IT0_T1_EE, symObjAddr: 0x9F90, symBinAddr: 0x1000183A0, symSize: 0x30 }
  - { offsetInCU: 0x4B1A, offset: 0x35040, size: 0x8, addend: 0x0, symName: __ZNSt3__16chronogtB7v160006IdNS_5ratioILl1ELl1000EEEdS3_EEbRKNS0_8durationIT_T0_EERKNS4_IT1_T2_EE, symObjAddr: 0xA030, symBinAddr: 0x100018440, symSize: 0x30 }
  - { offsetInCU: 0x4B7B, offset: 0x350A1, size: 0x8, addend: 0x0, symName: __ZNSt3__16chronoltB7v160006IdNS_5ratioILl1ELl1000EEEeNS2_ILl1ELl1EEEEEbRKNS0_8durationIT_T0_EERKNS5_IT1_T2_EE, symObjAddr: 0xA100, symBinAddr: 0x100018510, symSize: 0x30 }
  - { offsetInCU: 0x4BDC, offset: 0x35102, size: 0x8, addend: 0x0, symName: __ZNSt3__16chrono13duration_castB7v160006INS0_8durationIxNS_5ratioILl1ELl1000000000EEEEEdNS3_ILl1ELl1000EEEEENS_9enable_ifIXsr13__is_durationIT_EE5valueES8_E4typeERKNS2_IT0_T1_EE, symObjAddr: 0xA130, symBinAddr: 0x100018540, symSize: 0x30 }
  - { offsetInCU: 0x4C23, offset: 0x35149, size: 0x8, addend: 0x0, symName: __ZNSt3__16chronoltB7v160006IxNS_5ratioILl1ELl1000000000EEEdNS2_ILl1ELl1000EEEEEbRKNS0_8durationIT_T0_EERKNS5_IT1_T2_EE, symObjAddr: 0xA160, symBinAddr: 0x100018570, symSize: 0x30 }
  - { offsetInCU: 0x4C84, offset: 0x351AA, size: 0x8, addend: 0x0, symName: __ZNSt3__16chronoltB7v160006IdNS_5ratioILl1ELl1000EEEdS3_EEbRKNS0_8durationIT_T0_EERKNS4_IT1_T2_EE, symObjAddr: 0xA200, symBinAddr: 0x100018610, symSize: 0x30 }
  - { offsetInCU: 0x4D62, offset: 0x35288, size: 0x8, addend: 0x0, symName: __ZNSt3__16chrono13duration_castB7v160006INS0_8durationIeNS_5ratioILl1ELl1000EEEEEdS4_EENS_9enable_ifIXsr13__is_durationIT_EE5valueES7_E4typeERKNS2_IT0_T1_EE, symObjAddr: 0xA3E0, symBinAddr: 0x1000187F0, symSize: 0x30 }
  - { offsetInCU: 0x4DF4, offset: 0x3531A, size: 0x8, addend: 0x0, symName: __ZNSt3__16chrono13duration_castB7v160006INS0_8durationIeNS_5ratioILl1ELl1000EEEEEeNS3_ILl1ELl1EEEEENS_9enable_ifIXsr13__is_durationIT_EE5valueES8_E4typeERKNS2_IT0_T1_EE, symObjAddr: 0xA4E0, symBinAddr: 0x1000188F0, symSize: 0x30 }
  - { offsetInCU: 0x4E3B, offset: 0x35361, size: 0x8, addend: 0x0, symName: __ZNSt3__16chrono13duration_castB7v160006INS0_8durationIdNS_5ratioILl1ELl1000000000EEEEExS4_EENS_9enable_ifIXsr13__is_durationIT_EE5valueES7_E4typeERKNS2_IT0_T1_EE, symObjAddr: 0xA740, symBinAddr: 0x100018B50, symSize: 0x30 }
  - { offsetInCU: 0x4ECD, offset: 0x353F3, size: 0x8, addend: 0x0, symName: __ZNSt3__16chrono13duration_castB7v160006INS0_8durationIdNS_5ratioILl1ELl1000000000EEEEEdNS3_ILl1ELl1000EEEEENS_9enable_ifIXsr13__is_durationIT_EE5valueES8_E4typeERKNS2_IT0_T1_EE, symObjAddr: 0xA880, symBinAddr: 0x100018C90, symSize: 0x30 }
  - { offsetInCU: 0x4F54, offset: 0x3547A, size: 0x8, addend: 0x0, symName: __ZNSt3__16chronogtB7v160006IxNS_5ratioILl1ELl1EEExS3_EEbRKNS0_8durationIT_T0_EERKNS4_IT1_T2_EE, symObjAddr: 0xAC10, symBinAddr: 0x100018FE0, symSize: 0x30 }
  - { offsetInCU: 0x4FB5, offset: 0x354DB, size: 0x8, addend: 0x0, symName: __ZNSt3__16chronoltB7v160006IxNS_5ratioILl1ELl1EEEeS3_EEbRKNS0_8durationIT_T0_EERKNS4_IT1_T2_EE, symObjAddr: 0xAC90, symBinAddr: 0x100019060, symSize: 0x30 }
  - { offsetInCU: 0x5016, offset: 0x3553C, size: 0x8, addend: 0x0, symName: __ZNSt3__16chrono13duration_castB7v160006INS0_8durationIxNS_5ratioILl1ELl1000000000EEEEExNS3_ILl1ELl1EEEEENS_9enable_ifIXsr13__is_durationIT_EE5valueES8_E4typeERKNS2_IT0_T1_EE, symObjAddr: 0xACC0, symBinAddr: 0x100019090, symSize: 0x30 }
  - { offsetInCU: 0x505D, offset: 0x35583, size: 0x8, addend: 0x0, symName: __ZNSt3__16chronoltB7v160006IxNS_5ratioILl1ELl1000000000EEExNS2_ILl1ELl1EEEEEbRKNS0_8durationIT_T0_EERKNS5_IT1_T2_EE, symObjAddr: 0xACF0, symBinAddr: 0x1000190C0, symSize: 0x30 }
  - { offsetInCU: 0x50BE, offset: 0x355E4, size: 0x8, addend: 0x0, symName: __ZNSt3__16chronoltB7v160006IxNS_5ratioILl1ELl1EEExS3_EEbRKNS0_8durationIT_T0_EERKNS4_IT1_T2_EE, symObjAddr: 0xAD20, symBinAddr: 0x1000190F0, symSize: 0x30 }
  - { offsetInCU: 0x515C, offset: 0x35682, size: 0x8, addend: 0x0, symName: __ZNSt3__16chrono13duration_castB7v160006INS0_8durationIeNS_5ratioILl1ELl1EEEEExS4_EENS_9enable_ifIXsr13__is_durationIT_EE5valueES7_E4typeERKNS2_IT0_T1_EE, symObjAddr: 0xAED0, symBinAddr: 0x1000192A0, symSize: 0x30 }
  - { offsetInCU: 0x51EE, offset: 0x35714, size: 0x8, addend: 0x0, symName: __ZNSt3__16chronogtB7v160006IxNS_5ratioILl1ELl1000EEExS3_EEbRKNS0_8durationIT_T0_EERKNS4_IT1_T2_EE, symObjAddr: 0xB130, symBinAddr: 0x100019500, symSize: 0x30 }
  - { offsetInCU: 0x524F, offset: 0x35775, size: 0x8, addend: 0x0, symName: __ZNSt3__16chronoltB7v160006IxNS_5ratioILl1ELl1000EEEeNS2_ILl1ELl1EEEEEbRKNS0_8durationIT_T0_EERKNS5_IT1_T2_EE, symObjAddr: 0xB1B0, symBinAddr: 0x100019580, symSize: 0x30 }
  - { offsetInCU: 0x52B0, offset: 0x357D6, size: 0x8, addend: 0x0, symName: __ZNSt3__16chrono13duration_castB7v160006INS0_8durationIxNS_5ratioILl1ELl1000000000EEEEExNS3_ILl1ELl1000EEEEENS_9enable_ifIXsr13__is_durationIT_EE5valueES8_E4typeERKNS2_IT0_T1_EE, symObjAddr: 0xB1E0, symBinAddr: 0x1000195B0, symSize: 0x30 }
  - { offsetInCU: 0x52F7, offset: 0x3581D, size: 0x8, addend: 0x0, symName: __ZNSt3__16chronoltB7v160006IxNS_5ratioILl1ELl1000000000EEExNS2_ILl1ELl1000EEEEEbRKNS0_8durationIT_T0_EERKNS5_IT1_T2_EE, symObjAddr: 0xB210, symBinAddr: 0x1000195E0, symSize: 0x30 }
  - { offsetInCU: 0x5358, offset: 0x3587E, size: 0x8, addend: 0x0, symName: __ZNSt3__16chronoltB7v160006IxNS_5ratioILl1ELl1000EEExS3_EEbRKNS0_8durationIT_T0_EERKNS4_IT1_T2_EE, symObjAddr: 0xB240, symBinAddr: 0x100019610, symSize: 0x30 }
  - { offsetInCU: 0x53F6, offset: 0x3591C, size: 0x8, addend: 0x0, symName: __ZNSt3__16chrono13duration_castB7v160006INS0_8durationIeNS_5ratioILl1ELl1000EEEEExS4_EENS_9enable_ifIXsr13__is_durationIT_EE5valueES7_E4typeERKNS2_IT0_T1_EE, symObjAddr: 0xB410, symBinAddr: 0x1000197E0, symSize: 0x30 }
  - { offsetInCU: 0x5488, offset: 0x359AE, size: 0x8, addend: 0x0, symName: __ZNSt3__16chronogtB7v160006IiNS_5ratioILl1ELl48EEEiS3_EEbRKNS0_8durationIT_T0_EERKNS4_IT1_T2_EE, symObjAddr: 0xBD20, symBinAddr: 0x100019E60, symSize: 0x30 }
  - { offsetInCU: 0x54E9, offset: 0x35A0F, size: 0x8, addend: 0x0, symName: __ZNSt3__16chronoltB7v160006IiNS_5ratioILl1ELl48EEEeNS2_ILl1ELl1EEEEEbRKNS0_8durationIT_T0_EERKNS5_IT1_T2_EE, symObjAddr: 0xBDA0, symBinAddr: 0x100019EE0, symSize: 0x30 }
  - { offsetInCU: 0x554A, offset: 0x35A70, size: 0x8, addend: 0x0, symName: __ZNSt3__16chrono13duration_castB7v160006INS0_8durationIxNS_5ratioILl1ELl1000000000EEEEEiNS3_ILl1ELl48EEEEENS_9enable_ifIXsr13__is_durationIT_EE5valueES8_E4typeERKNS2_IT0_T1_EE, symObjAddr: 0xBDD0, symBinAddr: 0x100019F10, symSize: 0x30 }
  - { offsetInCU: 0x5591, offset: 0x35AB7, size: 0x8, addend: 0x0, symName: __ZNSt3__16chronoltB7v160006IxNS_5ratioILl1ELl1000000000EEEiNS2_ILl1ELl48EEEEEbRKNS0_8durationIT_T0_EERKNS5_IT1_T2_EE, symObjAddr: 0xBE00, symBinAddr: 0x100019F40, symSize: 0x30 }
  - { offsetInCU: 0x55F2, offset: 0x35B18, size: 0x8, addend: 0x0, symName: __ZNSt3__16chronoltB7v160006IiNS_5ratioILl1ELl48EEEiS3_EEbRKNS0_8durationIT_T0_EERKNS4_IT1_T2_EE, symObjAddr: 0xBE30, symBinAddr: 0x100019F70, symSize: 0x30 }
  - { offsetInCU: 0x56D0, offset: 0x35BF6, size: 0x8, addend: 0x0, symName: __ZNSt3__16chrono13duration_castB7v160006INS0_8durationIeNS_5ratioILl1ELl48EEEEEiS4_EENS_9enable_ifIXsr13__is_durationIT_EE5valueES7_E4typeERKNS2_IT0_T1_EE, symObjAddr: 0xBFE0, symBinAddr: 0x10001A120, symSize: 0x30 }
  - { offsetInCU: 0x5762, offset: 0x35C88, size: 0x8, addend: 0x0, symName: __ZNSt3__16chrono13duration_castB7v160006INS0_8durationIeNS_5ratioILl1ELl48EEEEEeNS3_ILl1ELl1EEEEENS_9enable_ifIXsr13__is_durationIT_EE5valueES8_E4typeERKNS2_IT0_T1_EE, symObjAddr: 0xC0E0, symBinAddr: 0x10001A220, symSize: 0x30 }
  - { offsetInCU: 0x57A9, offset: 0x35CCF, size: 0x8, addend: 0x0, symName: __ZNSt3__16chrono13duration_castB7v160006INS0_8durationIxNS_5ratioILl1ELl3000000000EEEEExNS3_ILl1ELl1000000000EEEEENS_9enable_ifIXsr13__is_durationIT_EE5valueES8_E4typeERKNS2_IT0_T1_EE, symObjAddr: 0xC2E0, symBinAddr: 0x10001A420, symSize: 0x30 }
  - { offsetInCU: 0x57F0, offset: 0x35D16, size: 0x8, addend: 0x0, symName: __ZNSt3__16chrono13duration_castB7v160006INS0_8durationIxNS_5ratioILl1ELl3000000000EEEEEiNS3_ILl1ELl48EEEEENS_9enable_ifIXsr13__is_durationIT_EE5valueES8_E4typeERKNS2_IT0_T1_EE, symObjAddr: 0xC3F0, symBinAddr: 0x10001A530, symSize: 0x30 }
  - { offsetInCU: 0xA3E2, offset: 0x3A908, size: 0x8, addend: 0x0, symName: __ZNSt3__16copy_nB7v160006IPKcmPcEENS_9enable_ifIXsr33__is_cpp17_random_access_iteratorIT_EE5valueET1_E4typeES5_T0_S6_, symObjAddr: 0x8E90, symBinAddr: 0x100017B90, symSize: 0x40 }
  - { offsetInCU: 0xC93E, offset: 0x3CE64, size: 0x8, addend: 0x0, symName: __ZNSt3__1plB7v160006IcNS_11char_traitsIcEENS_9allocatorIcEEEENS_12basic_stringIT_T0_T1_EERKS9_SB_, symObjAddr: 0x1980, symBinAddr: 0x1000135C0, symSize: 0x110 }
  - { offsetInCU: 0xC9E0, offset: 0x3CF06, size: 0x8, addend: 0x0, symName: __ZNSt3__1plB7v160006IcNS_11char_traitsIcEENS_9allocatorIcEEEENS_12basic_stringIT_T0_T1_EERKS9_PKS6_, symObjAddr: 0x1A90, symBinAddr: 0x1000136D0, symSize: 0x100 }
  - { offsetInCU: 0xCA82, offset: 0x3CFA8, size: 0x8, addend: 0x0, symName: __ZNSt3__15flushB7v160006IcNS_11char_traitsIcEEEERNS_13basic_ostreamIT_T0_EES7_, symObjAddr: 0x1C20, symBinAddr: 0x100013820, symSize: 0x20 }
  - { offsetInCU: 0xCAC2, offset: 0x3CFE8, size: 0x8, addend: 0x0, symName: __ZNSt3__1lsB7v160006IcNS_11char_traitsIcEEEERNS_13basic_ostreamIT_T0_EES7_RKNS_8__iom_t6E, symObjAddr: 0x1CF0, symBinAddr: 0x100013870, symSize: 0x40 }
  - { offsetInCU: 0xCB11, offset: 0x3D037, size: 0x8, addend: 0x0, symName: __ZNSt3__14setwB7v160006Ei, symObjAddr: 0x1D30, symBinAddr: 0x1000138B0, symSize: 0x20 }
  - { offsetInCU: 0xCB44, offset: 0x3D06A, size: 0x8, addend: 0x0, symName: __ZNSt3__111this_thread9sleep_forB7v160006IdNS_5ratioILl1ELl1000EEEEEvRKNS_6chrono8durationIT_T0_EE, symObjAddr: 0x1D50, symBinAddr: 0x1000138D0, symSize: 0xE0 }
  - { offsetInCU: 0xCBAC, offset: 0x3D0D2, size: 0x8, addend: 0x0, symName: __ZNSt3__111this_thread9sleep_forB7v160006IxNS_5ratioILl1ELl1EEEEEvRKNS_6chrono8durationIT_T0_EE, symObjAddr: 0x4040, symBinAddr: 0x100015B70, symSize: 0xE0 }
  - { offsetInCU: 0xCC14, offset: 0x3D13A, size: 0x8, addend: 0x0, symName: __ZNSt3__111this_thread9sleep_forB7v160006IxNS_5ratioILl1ELl1000EEEEEvRKNS_6chrono8durationIT_T0_EE, symObjAddr: 0x4250, symBinAddr: 0x100015D60, symSize: 0xE0 }
  - { offsetInCU: 0xCC7C, offset: 0x3D1A2, size: 0x8, addend: 0x0, symName: __ZNSt3__111this_thread9sleep_forB7v160006IiNS_5ratioILl1ELl48EEEEEvRKNS_6chrono8durationIT_T0_EE, symObjAddr: 0x46B0, symBinAddr: 0x100016140, symSize: 0xD0 }
  - { offsetInCU: 0xCCE5, offset: 0x3D20B, size: 0x8, addend: 0x0, symName: __ZNSt3__13maxB7v160006IdEERKT_S3_S3_, symObjAddr: 0x4140, symBinAddr: 0x100015C50, symSize: 0x30 }
  - { offsetInCU: 0xCD28, offset: 0x3D24E, size: 0x8, addend: 0x0, symName: __ZNSt3__14endlB7v160006IcNS_11char_traitsIcEEEERNS_13basic_ostreamIT_T0_EES7_, symObjAddr: 0x41A0, symBinAddr: 0x100015CB0, symSize: 0x50 }
  - { offsetInCU: 0xCD68, offset: 0x3D28E, size: 0x8, addend: 0x0, symName: __ZNSt3__15rightB7v160006ERNS_8ios_baseE, symObjAddr: 0x4220, symBinAddr: 0x100015D30, symSize: 0x30 }
  - { offsetInCU: 0xCD96, offset: 0x3D2BC, size: 0x8, addend: 0x0, symName: __ZNSt3__142__uninitialized_allocator_move_if_noexceptB7v160006INS_9allocatorINS_6vectorIiNS1_IiEEEEEENS_16reverse_iteratorIPS4_EES8_S8_EET2_RT_T0_T1_S9_, symObjAddr: 0x7420, symBinAddr: 0x100016B60, symSize: 0x190 }
  - { offsetInCU: 0xCE35, offset: 0x3D35B, size: 0x8, addend: 0x0, symName: __ZNSt3__14swapB7v160006IPNS_6vectorIiNS_9allocatorIiEEEEEEvRT_S7_, symObjAddr: 0x7600, symBinAddr: 0x100016D40, symSize: 0x40 }
  - { offsetInCU: 0xCE86, offset: 0x3D3AC, size: 0x8, addend: 0x0, symName: __ZNSt3__125__debug_db_invalidate_allB7v160006INS_6vectorINS1_IiNS_9allocatorIiEEEENS2_IS4_EEEEEEvPT_, symObjAddr: 0x76E0, symBinAddr: 0x100016D80, symSize: 0x10 }
  - { offsetInCU: 0xCEB7, offset: 0x3D3DD, size: 0x8, addend: 0x0, symName: __ZNSt3__122__make_exception_guardB7v160006INS_29_AllocatorDestroyRangeReverseINS_9allocatorINS_6vectorIiNS2_IiEEEEEENS_16reverse_iteratorIPS5_EEEEEENS_28__exception_guard_exceptionsIT_EESC_, symObjAddr: 0x76F0, symBinAddr: 0x100016D90, symSize: 0x60 }
  - { offsetInCU: 0xCEEC, offset: 0x3D412, size: 0x8, addend: 0x0, symName: __ZNSt3__1neB7v160006IPNS_6vectorIiNS_9allocatorIiEEEES5_EEbRKNS_16reverse_iteratorIT_EERKNS6_IT0_EE, symObjAddr: 0x7790, symBinAddr: 0x100016E30, symSize: 0x40 }
  - { offsetInCU: 0xCF38, offset: 0x3D45E, size: 0x8, addend: 0x0, symName: __ZNSt3__112__to_addressB7v160006INS_16reverse_iteratorIPNS_6vectorIiNS_9allocatorIiEEEEEEvEENS_5decayIDTclsr19__to_address_helperIT_EE6__callclsr3stdE7declvalIRKS9_EEEEE4typeESB_, symObjAddr: 0x77D0, symBinAddr: 0x100016E70, symSize: 0x20 }
  - { offsetInCU: 0xCF97, offset: 0x3D4BD, size: 0x8, addend: 0x0, symName: __ZNSt3__119__allocator_destroyB7v160006INS_9allocatorINS_6vectorIiNS1_IiEEEEEENS_16reverse_iteratorINS6_IPS4_EEEES9_EEvRT_T0_T1_, symObjAddr: 0x7AC0, symBinAddr: 0x100017160, symSize: 0x70 }
  - { offsetInCU: 0xCFFA, offset: 0x3D520, size: 0x8, addend: 0x0, symName: __ZNSt3__1neB7v160006INS_16reverse_iteratorIPNS_6vectorIiNS_9allocatorIiEEEEEES7_EEbRKNS1_IT_EERKNS1_IT0_EE, symObjAddr: 0x7B60, symBinAddr: 0x100017200, symSize: 0x50 }
  - { offsetInCU: 0xD046, offset: 0x3D56C, size: 0x8, addend: 0x0, symName: __ZNSt3__112__to_addressB7v160006INS_16reverse_iteratorINS1_IPNS_6vectorIiNS_9allocatorIiEEEEEEEEvEENS_5decayIDTclsr19__to_address_helperIT_EE6__callclsr3stdE7declvalIRKSA_EEEEE4typeESC_, symObjAddr: 0x7BB0, symBinAddr: 0x100017250, symSize: 0x20 }
  - { offsetInCU: 0xD0A5, offset: 0x3D5CB, size: 0x8, addend: 0x0, symName: __ZNSt3__14swapB7v160006IP6PlayerEEvRT_S4_, symObjAddr: 0x8020, symBinAddr: 0x1000176C0, symSize: 0x40 }
  - { offsetInCU: 0xD0F6, offset: 0x3D61C, size: 0x8, addend: 0x0, symName: __ZNSt3__14swapB7v160006IP5EnemyEEvRT_S4_, symObjAddr: 0x8100, symBinAddr: 0x100017760, symSize: 0x40 }
  - { offsetInCU: 0xD147, offset: 0x3D66D, size: 0x8, addend: 0x0, symName: __ZNSt3__112__to_addressB7v160006IcEEPT_S2_, symObjAddr: 0x8A10, symBinAddr: 0x1000178A0, symSize: 0x10 }
  - { offsetInCU: 0xD17C, offset: 0x3D6A2, size: 0x8, addend: 0x0, symName: __ZNSt3__14copyB7v160006IPKcPcEET0_T_S5_S4_, symObjAddr: 0x8ED0, symBinAddr: 0x100017BD0, symSize: 0x40 }
  - { offsetInCU: 0xD1D6, offset: 0x3D6FC, size: 0x8, addend: 0x0, symName: __ZNSt3__16__copyB7v160006INS_17_ClassicAlgPolicyEPKcS3_PcEENS_4pairIT0_T2_EES6_T1_S7_, symObjAddr: 0x8F10, symBinAddr: 0x100017C10, symSize: 0x40 }
  - { offsetInCU: 0xD242, offset: 0x3D768, size: 0x8, addend: 0x0, symName: __ZNSt3__123__dispatch_copy_or_moveB7v160006INS_17_ClassicAlgPolicyENS_11__copy_loopIS1_EENS_14__copy_trivialEPKcS6_PcEENS_4pairIT2_T4_EES9_T3_SA_, symObjAddr: 0x8F50, symBinAddr: 0x100017C50, symSize: 0x60 }
  - { offsetInCU: 0xD2C0, offset: 0x3D7E6, size: 0x8, addend: 0x0, symName: __ZNSt3__121__unwrap_and_dispatchB7v160006INS_10__overloadINS_11__copy_loopINS_17_ClassicAlgPolicyEEENS_14__copy_trivialEEEPKcS8_PcLi0EEENS_4pairIT0_T2_EESB_T1_SC_, symObjAddr: 0x8FB0, symBinAddr: 0x100017CB0, symSize: 0xB0 }
  - { offsetInCU: 0xD34F, offset: 0x3D875, size: 0x8, addend: 0x0, symName: __ZNSt3__114__unwrap_rangeB7v160006IPKcS2_EENS_4pairIT0_S4_EET_S6_, symObjAddr: 0x9060, symBinAddr: 0x100017D60, symSize: 0x50 }
  - { offsetInCU: 0xD48E, offset: 0x3D9B4, size: 0x8, addend: 0x0, symName: __ZNSt3__113__unwrap_iterB7v160006IPcNS_18__unwrap_iter_implIS1_Lb1EEELi0EEEDTclsrT0_8__unwrapclsr3stdE7declvalIT_EEEES5_, symObjAddr: 0x90F0, symBinAddr: 0x100017DF0, symSize: 0x20 }
  - { offsetInCU: 0xD4D2, offset: 0x3D9F8, size: 0x8, addend: 0x0, symName: __ZNSt3__19make_pairB7v160006IPKcPcEENS_4pairINS_18__unwrap_ref_decayIT_E4typeENS5_IT0_E4typeEEEOS6_OS9_, symObjAddr: 0x9110, symBinAddr: 0x100017E10, symSize: 0x30 }
  - { offsetInCU: 0xD521, offset: 0x3DA47, size: 0x8, addend: 0x0, symName: __ZNSt3__114__rewrap_rangeB7v160006IPKcS2_EET_S3_T0_, symObjAddr: 0x9140, symBinAddr: 0x100017E40, symSize: 0x30 }
  - { offsetInCU: 0xD56D, offset: 0x3DA93, size: 0x8, addend: 0x0, symName: __ZNSt3__113__rewrap_iterB7v160006IPcS1_NS_18__unwrap_iter_implIS1_Lb1EEEEET_S4_T0_, symObjAddr: 0x9170, symBinAddr: 0x100017E70, symSize: 0x50 }
  - { offsetInCU: 0xD5C2, offset: 0x3DAE8, size: 0x8, addend: 0x0, symName: __ZNSt3__19make_pairB7v160006IPKcS2_EENS_4pairINS_18__unwrap_ref_decayIT_E4typeENS4_IT0_E4typeEEEOS5_OS8_, symObjAddr: 0x91C0, symBinAddr: 0x100017EC0, symSize: 0x30 }
  - { offsetInCU: 0xD611, offset: 0x3DB37, size: 0x8, addend: 0x0, symName: __ZNSt3__113__unwrap_iterB7v160006IPKcNS_18__unwrap_iter_implIS2_Lb1EEELi0EEEDTclsrT0_8__unwrapclsr3stdE7declvalIT_EEEES6_, symObjAddr: 0x91F0, symBinAddr: 0x100017EF0, symSize: 0x20 }
  - { offsetInCU: 0xD755, offset: 0x3DC7B, size: 0x8, addend: 0x0, symName: __ZNSt3__119__copy_trivial_implB7v160006IKccEENS_4pairIPT_PT0_EES4_S4_S6_, symObjAddr: 0x92A0, symBinAddr: 0x100017F90, symSize: 0x70 }
  - { offsetInCU: 0xD7BD, offset: 0x3DCE3, size: 0x8, addend: 0x0, symName: __ZNSt3__19make_pairB7v160006IRPKcPcEENS_4pairINS_18__unwrap_ref_decayIT_E4typeENS6_IT0_E4typeEEEOS7_OSA_, symObjAddr: 0x9310, symBinAddr: 0x100018000, symSize: 0x30 }
  - { offsetInCU: 0xD85F, offset: 0x3DD85, size: 0x8, addend: 0x0, symName: __ZNSt3__113__rewrap_iterB7v160006IPKcS2_NS_18__unwrap_iter_implIS2_Lb1EEEEET_S5_T0_, symObjAddr: 0x93C0, symBinAddr: 0x1000180B0, symSize: 0x50 }
  - { offsetInCU: 0xD8B4, offset: 0x3DDDA, size: 0x8, addend: 0x0, symName: __ZNSt3__16fill_nB7v160006IPcmcEET_S2_T0_RKT1_, symObjAddr: 0x9540, symBinAddr: 0x100018180, symSize: 0x40 }
  - { offsetInCU: 0xD917, offset: 0x3DE3D, size: 0x8, addend: 0x0, symName: __ZNSt3__18__fill_nB7v160006IPcmcEET_S2_T0_RKT1_, symObjAddr: 0x9580, symBinAddr: 0x1000181C0, symSize: 0x50 }
  - { offsetInCU: 0xD97A, offset: 0x3DEA0, size: 0x8, addend: 0x0, symName: __ZNSt3__121__convert_to_integralB7v160006Em, symObjAddr: 0x95D0, symBinAddr: 0x100018210, symSize: 0x10 }
  - { offsetInCU: 0xDBA7, offset: 0x3E0CD, size: 0x8, addend: 0x0, symName: __ZNSt3__13maxB7v160006IdNS_6__lessIddEEEERKT_S5_S5_T0_, symObjAddr: 0xB060, symBinAddr: 0x100019430, symSize: 0x50 }
  - { offsetInCU: 0xDC3C, offset: 0x3E162, size: 0x8, addend: 0x0, symName: __ZNSt3__113__countl_zeroB7v160006IjEEiT_, symObjAddr: 0xB8E0, symBinAddr: 0x100019BC0, symSize: 0x40 }
  - { offsetInCU: 0xDC71, offset: 0x3E197, size: 0x8, addend: 0x0, symName: __ZNSt3__112__libcpp_clzB7v160006Ej, symObjAddr: 0xBCD0, symBinAddr: 0x100019E10, symSize: 0x20 }
  - { offsetInCU: 0xE2A9, offset: 0x3E7CF, size: 0x8, addend: 0x0, symName: __ZNSt3__16vectorINS0_IiNS_9allocatorIiEEEENS1_IS3_EEE26__swap_out_circular_bufferERNS_14__split_bufferIS3_RS4_EE, symObjAddr: 0x6C90, symBinAddr: 0x100016770, symSize: 0x130 }
  - { offsetInCU: 0xEB77, offset: 0x3F09D, size: 0x8, addend: 0x0, symName: __ZNKSt3__16chrono13__duration_ltINS0_8durationIdNS_5ratioILl1ELl1000EEEEENS2_IxNS3_ILl1ELl1EEEEEEclB7v160006ERKS5_RKS7_, symObjAddr: 0x9E90, symBinAddr: 0x1000182A0, symSize: 0x60 }
  - { offsetInCU: 0xEBD1, offset: 0x3F0F7, size: 0x8, addend: 0x0, symName: __ZNKSt3__16chrono15__duration_castINS0_8durationIxNS_5ratioILl1ELl1EEEEENS2_IdNS3_ILl1ELl1000EEEEENS3_ILl1000ELl1EEELb0ELb1EEclB7v160006ERKS5_, symObjAddr: 0x9FC0, symBinAddr: 0x1000183D0, symSize: 0x50 }
  - { offsetInCU: 0xEC3D, offset: 0x3F163, size: 0x8, addend: 0x0, symName: __ZNKSt3__16chrono13__duration_ltINS0_8durationIdNS_5ratioILl1ELl1000EEEEENS2_IeNS3_ILl1ELl1EEEEEEclB7v160006ERKS5_RKS7_, symObjAddr: 0xA2C0, symBinAddr: 0x1000186D0, symSize: 0x70 }
  - { offsetInCU: 0xECBA, offset: 0x3F1E0, size: 0x8, addend: 0x0, symName: __ZNKSt3__16chrono15__duration_castINS0_8durationIeNS_5ratioILl1ELl1EEEEENS2_IeNS3_ILl1ELl1000EEEEENS3_ILl1000ELl1EEELb0ELb1EEclB7v160006ERKS5_, symObjAddr: 0xA510, symBinAddr: 0x100018920, symSize: 0x40 }
  - { offsetInCU: 0xED26, offset: 0x3F24C, size: 0x8, addend: 0x0, symName: __ZNKSt3__16chrono15__duration_castINS0_8durationIdNS_5ratioILl1ELl1000EEEEENS2_IxNS3_ILl1ELl1000000000EEEEENS3_ILl1000000ELl1EEELb0ELb1EEclB7v160006ERKS5_, symObjAddr: 0xA560, symBinAddr: 0x100018970, symSize: 0x50 }
  - { offsetInCU: 0xED6F, offset: 0x3F295, size: 0x8, addend: 0x0, symName: __ZNKSt3__16chrono13__duration_ltINS0_8durationIxNS_5ratioILl1ELl1000000000EEEEENS2_IdNS3_ILl1ELl1000EEEEEEclB7v160006ERKS5_RKS7_, symObjAddr: 0xA600, symBinAddr: 0x100018A10, symSize: 0x70 }
  - { offsetInCU: 0xEDEC, offset: 0x3F312, size: 0x8, addend: 0x0, symName: __ZNKSt3__16chrono15__duration_castINS0_8durationIdNS_5ratioILl1ELl1000EEEEENS2_IdNS3_ILl1ELl1000000000EEEEENS3_ILl1000000ELl1EEELb0ELb1EEclB7v160006ERKS5_, symObjAddr: 0xA8B0, symBinAddr: 0x100018CC0, symSize: 0x50 }
  - { offsetInCU: 0xEE35, offset: 0x3F35B, size: 0x8, addend: 0x0, symName: __ZNKSt3__16chrono13__duration_ltINS0_8durationIxNS_5ratioILl1ELl1EEEEENS2_IeS4_EEEclB7v160006ERKS5_RKS6_, symObjAddr: 0xAE00, symBinAddr: 0x1000191D0, symSize: 0x60 }
  - { offsetInCU: 0xEE8F, offset: 0x3F3B5, size: 0x8, addend: 0x0, symName: __ZNKSt3__16chrono15__duration_castINS0_8durationIxNS_5ratioILl1ELl1EEEEENS2_IxNS3_ILl1ELl1000000000EEEEENS3_ILl1000000000ELl1EEELb0ELb1EEclB7v160006ERKS5_, symObjAddr: 0xAF40, symBinAddr: 0x100019310, symSize: 0x40 }
  - { offsetInCU: 0xEED8, offset: 0x3F3FE, size: 0x8, addend: 0x0, symName: __ZNKSt3__16chrono13__duration_ltINS0_8durationIxNS_5ratioILl1ELl1000000000EEEEENS2_IxNS3_ILl1ELl1EEEEEEclB7v160006ERKS5_RKS7_, symObjAddr: 0xAF80, symBinAddr: 0x100019350, symSize: 0x60 }
  - { offsetInCU: 0xEF32, offset: 0x3F458, size: 0x8, addend: 0x0, symName: __ZNKSt3__16chrono13__duration_ltINS0_8durationIxNS_5ratioILl1ELl1000EEEEENS2_IeNS3_ILl1ELl1EEEEEEclB7v160006ERKS5_RKS7_, symObjAddr: 0xB330, symBinAddr: 0x100019700, symSize: 0x70 }
  - { offsetInCU: 0xEF8C, offset: 0x3F4B2, size: 0x8, addend: 0x0, symName: __ZNKSt3__16chrono15__duration_castINS0_8durationIxNS_5ratioILl1ELl1000EEEEENS2_IxNS3_ILl1ELl1000000000EEEEENS3_ILl1000000ELl1EEELb0ELb1EEclB7v160006ERKS5_, symObjAddr: 0xB480, symBinAddr: 0x100019850, symSize: 0x40 }
  - { offsetInCU: 0xEFD5, offset: 0x3F4FB, size: 0x8, addend: 0x0, symName: __ZNKSt3__16chrono13__duration_ltINS0_8durationIxNS_5ratioILl1ELl1000000000EEEEENS2_IxNS3_ILl1ELl1000EEEEEEclB7v160006ERKS5_RKS7_, symObjAddr: 0xB4C0, symBinAddr: 0x100019890, symSize: 0x60 }
  - { offsetInCU: 0xF052, offset: 0x3F578, size: 0x8, addend: 0x0, symName: __ZNSt3__124uniform_int_distributionIiEclINS_23mersenne_twister_engineIjLm32ELm624ELm397ELm31ELj2567483615ELm11ELj4294967295ELm7ELj2636928640ELm15ELj4022730752ELm18ELj1812433253EEEEEiRT_RKNS1_10param_typeE, symObjAddr: 0xB710, symBinAddr: 0x1000199F0, symSize: 0x150 }
  - { offsetInCU: 0xF134, offset: 0x3F65A, size: 0x8, addend: 0x0, symName: __ZNKSt3__16chrono13__duration_ltINS0_8durationIiNS_5ratioILl1ELl48EEEEENS2_IeNS3_ILl1ELl1EEEEEEclB7v160006ERKS5_RKS7_, symObjAddr: 0xBEC0, symBinAddr: 0x10001A000, symSize: 0x70 }
  - { offsetInCU: 0xF1B1, offset: 0x3F6D7, size: 0x8, addend: 0x0, symName: __ZNKSt3__16chrono15__duration_castINS0_8durationIeNS_5ratioILl1ELl1EEEEENS2_IeNS3_ILl1ELl48EEEEENS3_ILl48ELl1EEELb0ELb1EEclB7v160006ERKS5_, symObjAddr: 0xC110, symBinAddr: 0x10001A250, symSize: 0x40 }
  - { offsetInCU: 0xF1FA, offset: 0x3F720, size: 0x8, addend: 0x0, symName: __ZNKSt3__16chrono15__duration_castINS0_8durationIiNS_5ratioILl1ELl48EEEEENS2_IxNS3_ILl1ELl1000000000EEEEENS3_ILl62500000ELl3EEELb0ELb0EEclB7v160006ERKS5_, symObjAddr: 0xC150, symBinAddr: 0x10001A290, symSize: 0x50 }
  - { offsetInCU: 0xF243, offset: 0x3F769, size: 0x8, addend: 0x0, symName: __ZNKSt3__16chrono13__duration_ltINS0_8durationIxNS_5ratioILl1ELl1000000000EEEEENS2_IiNS3_ILl1ELl48EEEEEEclB7v160006ERKS5_RKS7_, symObjAddr: 0xC1A0, symBinAddr: 0x10001A2E0, symSize: 0x70 }
  - { offsetInCU: 0xF2C0, offset: 0x3F7E6, size: 0x8, addend: 0x0, symName: __ZNKSt3__16chrono15__duration_castINS0_8durationIxNS_5ratioILl1ELl1000000000EEEEENS2_IxNS3_ILl1ELl3000000000EEEEENS3_ILl3ELl1EEELb0ELb1EEclB7v160006ERKS5_, symObjAddr: 0xC310, symBinAddr: 0x10001A450, symSize: 0x40 }
  - { offsetInCU: 0xF309, offset: 0x3F82F, size: 0x8, addend: 0x0, symName: __ZNKSt3__16chrono15__duration_castINS0_8durationIiNS_5ratioILl1ELl48EEEEENS2_IxNS3_ILl1ELl3000000000EEEEENS3_ILl62500000ELl1EEELb0ELb1EEclB7v160006ERKS5_, symObjAddr: 0xC420, symBinAddr: 0x10001A560, symSize: 0x41 }
  - { offsetInCU: 0x112F5, offset: 0x4181B, size: 0x8, addend: 0x0, symName: __ZN6BattleC2ENSt3__110shared_ptrI6PlayerEENS1_I5EnemyEE, symObjAddr: 0x0, symBinAddr: 0x100011DC0, symSize: 0x230 }
  - { offsetInCU: 0x1133F, offset: 0x41865, size: 0x8, addend: 0x0, symName: __ZNSt3__110shared_ptrI6PlayerEC1B7v160006Ev, symObjAddr: 0x230, symBinAddr: 0x100011FF0, symSize: 0x20 }
  - { offsetInCU: 0x11369, offset: 0x4188F, size: 0x8, addend: 0x0, symName: __ZNSt3__110shared_ptrI5EnemyEC1B7v160006Ev, symObjAddr: 0x250, symBinAddr: 0x100012010, symSize: 0x20 }
  - { offsetInCU: 0x11393, offset: 0x418B9, size: 0x8, addend: 0x0, symName: __ZNSt3__16vectorINS0_IiNS_9allocatorIiEEEENS1_IS3_EEEC1B7v160006Ev, symObjAddr: 0x270, symBinAddr: 0x100012030, symSize: 0x20 }
  - { offsetInCU: 0x113BD, offset: 0x418E3, size: 0x8, addend: 0x0, symName: __ZNSt3__16vectorINS0_IiNS_9allocatorIiEEEENS1_IS3_EEE6resizeEmRKS3_, symObjAddr: 0x290, symBinAddr: 0x100012050, symSize: 0x80 }
  - { offsetInCU: 0x11412, offset: 0x41938, size: 0x8, addend: 0x0, symName: __ZNSt3__110shared_ptrI6PlayerEaSB7v160006ERKS2_, symObjAddr: 0x370, symBinAddr: 0x1000120D0, symSize: 0x70 }
  - { offsetInCU: 0x11447, offset: 0x4196D, size: 0x8, addend: 0x0, symName: __ZNSt3__110shared_ptrI5EnemyEaSB7v160006ERKS2_, symObjAddr: 0x3E0, symBinAddr: 0x100012140, symSize: 0x70 }
  - { offsetInCU: 0x1147C, offset: 0x419A2, size: 0x8, addend: 0x0, symName: __ZNKSt3__110shared_ptrI6PlayerEptB7v160006Ev, symObjAddr: 0x450, symBinAddr: 0x1000121B0, symSize: 0x20 }
  - { offsetInCU: 0x114A2, offset: 0x419C8, size: 0x8, addend: 0x0, symName: __ZNKSt3__110shared_ptrI5EnemyEptB7v160006Ev, symObjAddr: 0x490, symBinAddr: 0x1000121D0, symSize: 0x20 }
  - { offsetInCU: 0x114C8, offset: 0x419EE, size: 0x8, addend: 0x0, symName: __ZN7Pokemon9getHealthEv, symObjAddr: 0x4B0, symBinAddr: 0x1000121F0, symSize: 0x70 }
  - { offsetInCU: 0x114EE, offset: 0x41A14, size: 0x8, addend: 0x0, symName: __ZNSt3__110shared_ptrI5EnemyED1B7v160006Ev, symObjAddr: 0x540, symBinAddr: 0x100012260, symSize: 0x20 }
  - { offsetInCU: 0x11518, offset: 0x41A3E, size: 0x8, addend: 0x0, symName: __ZNSt3__110shared_ptrI6PlayerED1B7v160006Ev, symObjAddr: 0x560, symBinAddr: 0x100012280, symSize: 0x20 }
  - { offsetInCU: 0x11542, offset: 0x41A68, size: 0x8, addend: 0x0, symName: __ZN6BattleC1ENSt3__110shared_ptrI6PlayerEENS1_I5EnemyEE, symObjAddr: 0x580, symBinAddr: 0x1000122A0, symSize: 0x30 }
  - { offsetInCU: 0x1158C, offset: 0x41AB2, size: 0x8, addend: 0x0, symName: __ZN6BattleD2Ev, symObjAddr: 0x5B0, symBinAddr: 0x1000122D0, symSize: 0x160 }
  - { offsetInCU: 0x115D4, offset: 0x41AFA, size: 0x8, addend: 0x0, symName: __ZNSt3__16vectorINS0_IiNS_9allocatorIiEEEENS1_IS3_EEE5clearB7v160006Ev, symObjAddr: 0x7A0, symBinAddr: 0x100012430, symSize: 0x50 }
  - { offsetInCU: 0x11609, offset: 0x41B2F, size: 0x8, addend: 0x0, symName: __ZN6BattleD1Ev, symObjAddr: 0x7F0, symBinAddr: 0x100012480, symSize: 0x20 }
  - { offsetInCU: 0x11634, offset: 0x41B5A, size: 0x8, addend: 0x0, symName: __Z12stringMovingNSt3__112basic_stringIcNS_11char_traitsIcEENS_9allocatorIcEEEEi, symObjAddr: 0x810, symBinAddr: 0x1000124A0, symSize: 0x100 }
  - { offsetInCU: 0x116A9, offset: 0x41BCF, size: 0x8, addend: 0x0, symName: __ZNKSt3__112basic_stringIcNS_11char_traitsIcEENS_9allocatorIcEEE6lengthB7v160006Ev, symObjAddr: 0x910, symBinAddr: 0x1000125A0, symSize: 0x20 }
  - { offsetInCU: 0x116CF, offset: 0x41BF5, size: 0x8, addend: 0x0, symName: __ZNSt3__112basic_stringIcNS_11char_traitsIcEENS_9allocatorIcEEEixB7v160006Em, symObjAddr: 0x950, symBinAddr: 0x1000125C0, symSize: 0x30 }
  - { offsetInCU: 0x11704, offset: 0x41C2A, size: 0x8, addend: 0x0, symName: __ZNSt3__112basic_stringIcNS_11char_traitsIcEENS_9allocatorIcEEEpLB7v160006Ec, symObjAddr: 0x980, symBinAddr: 0x1000125F0, symSize: 0x30 }
  - { offsetInCU: 0x11738, offset: 0x41C5E, size: 0x8, addend: 0x0, symName: __Z12stringMovingNSt3__112basic_stringIcNS_11char_traitsIcEENS_9allocatorIcEEEEii, symObjAddr: 0x9B0, symBinAddr: 0x100012620, symSize: 0xF0 }
  - { offsetInCU: 0x117BB, offset: 0x41CE1, size: 0x8, addend: 0x0, symName: __ZN6Battle16printStartBannerEi, symObjAddr: 0xAA0, symBinAddr: 0x100012710, symSize: 0xE20 }
  - { offsetInCU: 0x118C8, offset: 0x41DEE, size: 0x8, addend: 0x0, symName: __ZNSt3__16chrono8durationIxNS_5ratioILl1ELl1EEEEC1B7v160006IiEERKT_PNS_9enable_ifIXaasr14is_convertibleIS8_xEE5valueooL_ZNS_17integral_constantIbLb0EE5valueEEntsr23treat_as_floating_pointIS6_EE5valueEvE4typeE, symObjAddr: 0x18C0, symBinAddr: 0x100013530, symSize: 0x30 }
  - { offsetInCU: 0x11914, offset: 0x41E3A, size: 0x8, addend: 0x0, symName: __ZNSt3__16chrono8durationIdNS_5ratioILl1ELl1000EEEEC1B7v160006IiEERKT_PNS_9enable_ifIXaasr14is_convertibleIS8_dEE5valueooL_ZNS_17integral_constantIbLb1EE5valueEEntsr23treat_as_floating_pointIS6_EE5valueEvE4typeE, symObjAddr: 0x18F0, symBinAddr: 0x100013560, symSize: 0x30 }
  - { offsetInCU: 0x11965, offset: 0x41E8B, size: 0x8, addend: 0x0, symName: __ZN7Pokemon7getNameEv, symObjAddr: 0x1950, symBinAddr: 0x100013590, symSize: 0x30 }
  - { offsetInCU: 0x1198B, offset: 0x41EB1, size: 0x8, addend: 0x0, symName: __ZNSt3__112basic_stringIcNS_11char_traitsIcEENS_9allocatorIcEEEpLB7v160006ERKS5_, symObjAddr: 0x1B90, symBinAddr: 0x1000137D0, symSize: 0x30 }
  - { offsetInCU: 0x119C0, offset: 0x41EE6, size: 0x8, addend: 0x0, symName: __ZNSt3__113basic_ostreamIcNS_11char_traitsIcEEElsB7v160006EPFRS3_S4_E, symObjAddr: 0x1C00, symBinAddr: 0x100013800, symSize: 0x20 }
  - { offsetInCU: 0x119F4, offset: 0x41F1A, size: 0x8, addend: 0x0, symName: __ZNSt3__16chrono8durationIdNS_5ratioILl1ELl1000EEEEpLB7v160006ERKS4_, symObjAddr: 0x1E30, symBinAddr: 0x1000139B0, symSize: 0x40 }
  - { offsetInCU: 0x11A28, offset: 0x41F4E, size: 0x8, addend: 0x0, symName: __Z4cbrtB7v160006IiENSt3__19enable_ifIXsr3std11is_integralIT_EE5valueEdE4typeES2_, symObjAddr: 0x1E70, symBinAddr: 0x1000139F0, symSize: 0x20 }
  - { offsetInCU: 0x11A60, offset: 0x41F86, size: 0x8, addend: 0x0, symName: __ZNSt3__16chrono8durationIdNS_5ratioILl1ELl1000EEEEC1B7v160006IdEERKT_PNS_9enable_ifIXaasr14is_convertibleIS8_dEE5valueooL_ZNS_17integral_constantIbLb1EE5valueEEntsr23treat_as_floating_pointIS6_EE5valueEvE4typeE, symObjAddr: 0x1E90, symBinAddr: 0x100013A10, symSize: 0x30 }
  - { offsetInCU: 0x11AAC, offset: 0x41FD2, size: 0x8, addend: 0x0, symName: __ZN6Battle11startBattleEv, symObjAddr: 0x1EC0, symBinAddr: 0x100013A40, symSize: 0x4D0 }
  - { offsetInCU: 0x11B22, offset: 0x42048, size: 0x8, addend: 0x0, symName: __ZNSt3__112basic_stringIcNS_11char_traitsIcEENS_9allocatorIcEEE5beginB7v160006Ev, symObjAddr: 0x2390, symBinAddr: 0x100013F10, symSize: 0x60 }
  - { offsetInCU: 0x11B4D, offset: 0x42073, size: 0x8, addend: 0x0, symName: __ZNSt3__111__wrap_iterIPKcEC1B7v160006IPcEERKNS0_IT_EEPNS_9enable_ifIXsr14is_convertibleIS6_S2_EE5valueEvE4typeE, symObjAddr: 0x23F0, symBinAddr: 0x100013F70, symSize: 0x30 }
  - { offsetInCU: 0x11B99, offset: 0x420BF, size: 0x8, addend: 0x0, symName: __ZN6Battle16enemyChooseSkillEv, symObjAddr: 0x2480, symBinAddr: 0x100013FD0, symSize: 0x30 }
  - { offsetInCU: 0x11BC1, offset: 0x420E7, size: 0x8, addend: 0x0, symName: __ZN6Battle6attackEii, symObjAddr: 0x24B0, symBinAddr: 0x100014000, symSize: 0x17A0 }
  - { offsetInCU: 0x11C2E, offset: 0x42154, size: 0x8, addend: 0x0, symName: __Z11playerFirstNSt3__110shared_ptrI6PlayerEENS0_I5EnemyEENS0_I5SkillEES6_, symObjAddr: 0x3C50, symBinAddr: 0x1000157A0, symSize: 0x250 }
  - { offsetInCU: 0x11CDA, offset: 0x42200, size: 0x8, addend: 0x0, symName: __ZNSt3__110shared_ptrI6PlayerEC1B7v160006ERKS2_, symObjAddr: 0x3EA0, symBinAddr: 0x1000159F0, symSize: 0x30 }
  - { offsetInCU: 0x11D13, offset: 0x42239, size: 0x8, addend: 0x0, symName: __ZNSt3__110shared_ptrI5EnemyEC1B7v160006ERKS2_, symObjAddr: 0x3ED0, symBinAddr: 0x100015A20, symSize: 0x30 }
  - { offsetInCU: 0x11D4C, offset: 0x42272, size: 0x8, addend: 0x0, symName: __ZN7Pokemon8getSkillEi, symObjAddr: 0x3F00, symBinAddr: 0x100015A50, symSize: 0x60 }
  - { offsetInCU: 0x11D80, offset: 0x422A6, size: 0x8, addend: 0x0, symName: __ZNSt3__110shared_ptrI7PokemonEC1B7v160006I5EnemyvEERKNS0_IT_EE, symObjAddr: 0x3F80, symBinAddr: 0x100015AB0, symSize: 0x30 }
  - { offsetInCU: 0x11DC3, offset: 0x422E9, size: 0x8, addend: 0x0, symName: __ZNSt3__110shared_ptrI7PokemonED1B7v160006Ev, symObjAddr: 0x3FB0, symBinAddr: 0x100015AE0, symSize: 0x20 }
  - { offsetInCU: 0x11DED, offset: 0x42313, size: 0x8, addend: 0x0, symName: __ZN7Pokemon12getSkillNameEi, symObjAddr: 0x3FD0, symBinAddr: 0x100015B00, symSize: 0x70 }
  - { offsetInCU: 0x11E21, offset: 0x42347, size: 0x8, addend: 0x0, symName: __ZNSt3__110shared_ptrI7PokemonEC1B7v160006I6PlayervEERKNS0_IT_EE, symObjAddr: 0x4170, symBinAddr: 0x100015C80, symSize: 0x30 }
  - { offsetInCU: 0x11E64, offset: 0x4238A, size: 0x8, addend: 0x0, symName: __ZNSt3__113basic_ostreamIcNS_11char_traitsIcEEElsB7v160006EPFRNS_8ios_baseES5_E, symObjAddr: 0x41F0, symBinAddr: 0x100015D00, symSize: 0x30 }
  - { offsetInCU: 0x11E98, offset: 0x423BE, size: 0x8, addend: 0x0, symName: __ZNSt3__16chrono8durationIxNS_5ratioILl1ELl1000EEEEC1B7v160006IiEERKT_PNS_9enable_ifIXaasr14is_convertibleIS8_xEE5valueooL_ZNS_17integral_constantIbLb0EE5valueEEntsr23treat_as_floating_pointIS6_EE5valueEvE4typeE, symObjAddr: 0x4330, symBinAddr: 0x100015E40, symSize: 0x30 }
  - { offsetInCU: 0x11EE3, offset: 0x42409, size: 0x8, addend: 0x0, symName: __Z7printHpddb, symObjAddr: 0x4360, symBinAddr: 0x100015E70, symSize: 0x1C0 }
  - { offsetInCU: 0x11F6F, offset: 0x42495, size: 0x8, addend: 0x0, symName: __ZNSt3__124uniform_int_distributionIiEC1Eii, symObjAddr: 0x45A0, symBinAddr: 0x100016030, symSize: 0x30 }
  - { offsetInCU: 0x11FB5, offset: 0x424DB, size: 0x8, addend: 0x0, symName: __ZNSt3__124uniform_int_distributionIiEclINS_23mersenne_twister_engineIjLm32ELm624ELm397ELm31ELj2567483615ELm11ELj4294967295ELm7ELj2636928640ELm15ELj4022730752ELm18ELj1812433253EEEEEiRT_, symObjAddr: 0x45D0, symBinAddr: 0x100016060, symSize: 0x30 }
  - { offsetInCU: 0x11FF2, offset: 0x42518, size: 0x8, addend: 0x0, symName: __ZN6Battle7getUsedEbi, symObjAddr: 0x4600, symBinAddr: 0x100016090, symSize: 0x80 }
  - { offsetInCU: 0x12036, offset: 0x4255C, size: 0x8, addend: 0x0, symName: __ZNSt3__16chrono8durationIiNS_5ratioILl1ELl48EEEEC1B7v160006IiEERKT_PNS_9enable_ifIXaasr14is_convertibleIS8_iEE5valueooL_ZNS_17integral_constantIbLb0EE5valueEEntsr23treat_as_floating_pointIS6_EE5valueEvE4typeE, symObjAddr: 0x4680, symBinAddr: 0x100016110, symSize: 0x30 }
  - { offsetInCU: 0x12082, offset: 0x425A8, size: 0x8, addend: 0x0, symName: __ZNSt3__18__iom_t6C1B7v160006Ei, symObjAddr: 0x47A0, symBinAddr: 0x100016210, symSize: 0x30 }
  - { offsetInCU: 0x120BA, offset: 0x425E0, size: 0x8, addend: 0x0, symName: __ZNSt3__18__iom_t6C2B7v160006Ei, symObjAddr: 0x47D0, symBinAddr: 0x100016240, symSize: 0x20 }
  - { offsetInCU: 0x120F2, offset: 0x42618, size: 0x8, addend: 0x0, symName: __ZN5Skill7getNameEv, symObjAddr: 0x4810, symBinAddr: 0x100016260, symSize: 0x30 }
  - { offsetInCU: 0x12118, offset: 0x4263E, size: 0x8, addend: 0x0, symName: __ZNSt3__18ios_base4setfB7v160006Ejj, symObjAddr: 0x4840, symBinAddr: 0x100016290, symSize: 0x50 }
  - { offsetInCU: 0x1216D, offset: 0x42693, size: 0x8, addend: 0x0, symName: __ZNSt3__18ios_base6unsetfB7v160006Ej, symObjAddr: 0x4890, symBinAddr: 0x1000162E0, symSize: 0x20 }
  - { offsetInCU: 0x121A4, offset: 0x426CA, size: 0x8, addend: 0x0, symName: __ZNSt3__16chrono8durationIxNS_5ratioILl1ELl1000EEEEC2B7v160006IiEERKT_PNS_9enable_ifIXaasr14is_convertibleIS8_xEE5valueooL_ZNS_17integral_constantIbLb0EE5valueEEntsr23treat_as_floating_pointIS6_EE5valueEvE4typeE, symObjAddr: 0x48B0, symBinAddr: 0x100016300, symSize: 0x20 }
  - { offsetInCU: 0x1220E, offset: 0x42734, size: 0x8, addend: 0x0, symName: __ZNSt3__110shared_ptrI6PlayerEC2B7v160006Ev, symObjAddr: 0x5E20, symBinAddr: 0x100016320, symSize: 0x20 }
  - { offsetInCU: 0x12238, offset: 0x4275E, size: 0x8, addend: 0x0, symName: __ZNSt3__110shared_ptrI5EnemyEC2B7v160006Ev, symObjAddr: 0x5E40, symBinAddr: 0x100016340, symSize: 0x20 }
  - { offsetInCU: 0x12262, offset: 0x42788, size: 0x8, addend: 0x0, symName: __ZNSt3__16vectorINS0_IiNS_9allocatorIiEEEENS1_IS3_EEEC2B7v160006Ev, symObjAddr: 0x5E60, symBinAddr: 0x100016360, symSize: 0x50 }
  - { offsetInCU: 0x12291, offset: 0x427B7, size: 0x8, addend: 0x0, symName: __ZNSt3__110shared_ptrI6PlayerED2B7v160006Ev, symObjAddr: 0x5FA0, symBinAddr: 0x1000163B0, symSize: 0x40 }
  - { offsetInCU: 0x122BB, offset: 0x427E1, size: 0x8, addend: 0x0, symName: __ZNSt3__110shared_ptrI5EnemyED2B7v160006Ev, symObjAddr: 0x60A0, symBinAddr: 0x1000163F0, symSize: 0x40 }
  - { offsetInCU: 0x122E5, offset: 0x4280B, size: 0x8, addend: 0x0, symName: __ZNSt3__16vectorINS0_IiNS_9allocatorIiEEEENS1_IS3_EEE8__appendEmRKS3_, symObjAddr: 0x6860, symBinAddr: 0x100016430, symSize: 0x120 }
  - { offsetInCU: 0x12350, offset: 0x42876, size: 0x8, addend: 0x0, symName: __ZNSt3__16vectorINS0_IiNS_9allocatorIiEEEENS1_IS3_EEE17__destruct_at_endB7v160006EPS3_, symObjAddr: 0x6980, symBinAddr: 0x100016550, symSize: 0x80 }
  - { offsetInCU: 0x12394, offset: 0x428BA, size: 0x8, addend: 0x0, symName: __ZNKSt3__16vectorINS0_IiNS_9allocatorIiEEEENS1_IS3_EEE11__recommendB7v160006Em, symObjAddr: 0x6AF0, symBinAddr: 0x1000165D0, symSize: 0xA0 }
  - { offsetInCU: 0x123E9, offset: 0x4290F, size: 0x8, addend: 0x0, symName: __ZNSt3__114__split_bufferINS_6vectorIiNS_9allocatorIiEEEERNS2_IS4_EEEC1EmmS6_, symObjAddr: 0x6B90, symBinAddr: 0x100016670, symSize: 0x40 }
  - { offsetInCU: 0x1243F, offset: 0x42965, size: 0x8, addend: 0x0, symName: __ZNSt3__114__split_bufferINS_6vectorIiNS_9allocatorIiEEEERNS2_IS4_EEE18__construct_at_endEmRKS4_, symObjAddr: 0x6BD0, symBinAddr: 0x1000166B0, symSize: 0xC0 }
  - { offsetInCU: 0x12490, offset: 0x429B6, size: 0x8, addend: 0x0, symName: __ZNSt3__114__split_bufferINS_6vectorIiNS_9allocatorIiEEEERNS2_IS4_EEED1Ev, symObjAddr: 0x6DC0, symBinAddr: 0x1000168A0, symSize: 0x20 }
  - { offsetInCU: 0x124DF, offset: 0x42A05, size: 0x8, addend: 0x0, symName: __ZNSt3__114__split_bufferINS_6vectorIiNS_9allocatorIiEEEERNS2_IS4_EEEC2EmmS6_, symObjAddr: 0x70C0, symBinAddr: 0x1000168C0, symSize: 0xC0 }
  - { offsetInCU: 0x12552, offset: 0x42A78, size: 0x8, addend: 0x0, symName: __ZNSt3__117__compressed_pairIPNS_6vectorIiNS_9allocatorIiEEEERNS2_IS4_EEEC1B7v160006IDnS7_EEOT_OT0_, symObjAddr: 0x7180, symBinAddr: 0x100016980, symSize: 0x30 }
  - { offsetInCU: 0x125AA, offset: 0x42AD0, size: 0x8, addend: 0x0, symName: __ZNSt3__114__split_bufferINS_6vectorIiNS_9allocatorIiEEEERNS2_IS4_EEE7__allocB7v160006Ev, symObjAddr: 0x71F0, symBinAddr: 0x1000169B0, symSize: 0x20 }
  - { offsetInCU: 0x125D0, offset: 0x42AF6, size: 0x8, addend: 0x0, symName: __ZNSt3__114__split_bufferINS_6vectorIiNS_9allocatorIiEEEERNS2_IS4_EEE9__end_capB7v160006Ev, symObjAddr: 0x7210, symBinAddr: 0x1000169D0, symSize: 0x20 }
  - { offsetInCU: 0x125F6, offset: 0x42B1C, size: 0x8, addend: 0x0, symName: __ZNSt3__117__compressed_pairIPNS_6vectorIiNS_9allocatorIiEEEERNS2_IS4_EEEC2B7v160006IDnS7_EEOT_OT0_, symObjAddr: 0x7230, symBinAddr: 0x1000169F0, symSize: 0x40 }
  - { offsetInCU: 0x1264E, offset: 0x42B74, size: 0x8, addend: 0x0, symName: __ZNSt3__122__compressed_pair_elemIRNS_9allocatorINS_6vectorIiNS1_IiEEEEEELi1ELb0EEC2B7v160006IS6_vEEOT_, symObjAddr: 0x7270, symBinAddr: 0x100016A30, symSize: 0x20 }
  - { offsetInCU: 0x12690, offset: 0x42BB6, size: 0x8, addend: 0x0, symName: __ZNSt3__117__compressed_pairIPNS_6vectorIiNS_9allocatorIiEEEERNS2_IS4_EEE6secondB7v160006Ev, symObjAddr: 0x7310, symBinAddr: 0x100016A50, symSize: 0x20 }
  - { offsetInCU: 0x126B6, offset: 0x42BDC, size: 0x8, addend: 0x0, symName: __ZNSt3__122__compressed_pair_elemIRNS_9allocatorINS_6vectorIiNS1_IiEEEEEELi1ELb0EE5__getB7v160006Ev, symObjAddr: 0x7330, symBinAddr: 0x100016A70, symSize: 0x20 }
  - { offsetInCU: 0x126DC, offset: 0x42C02, size: 0x8, addend: 0x0, symName: __ZNSt3__117__compressed_pairIPNS_6vectorIiNS_9allocatorIiEEEERNS2_IS4_EEE5firstB7v160006Ev, symObjAddr: 0x7350, symBinAddr: 0x100016A90, symSize: 0x20 }
  - { offsetInCU: 0x1270C, offset: 0x42C32, size: 0x8, addend: 0x0, symName: __ZNSt3__114__split_bufferINS_6vectorIiNS_9allocatorIiEEEERNS2_IS4_EEE21_ConstructTransactionC1B7v160006EPPS4_m, symObjAddr: 0x7370, symBinAddr: 0x100016AB0, symSize: 0x30 }
  - { offsetInCU: 0x12752, offset: 0x42C78, size: 0x8, addend: 0x0, symName: __ZNSt3__114__split_bufferINS_6vectorIiNS_9allocatorIiEEEERNS2_IS4_EEE21_ConstructTransactionD1B7v160006Ev, symObjAddr: 0x73A0, symBinAddr: 0x100016AE0, symSize: 0x20 }
  - { offsetInCU: 0x1277C, offset: 0x42CA2, size: 0x8, addend: 0x0, symName: __ZNSt3__114__split_bufferINS_6vectorIiNS_9allocatorIiEEEERNS2_IS4_EEE21_ConstructTransactionC2B7v160006EPPS4_m, symObjAddr: 0x73C0, symBinAddr: 0x100016B00, symSize: 0x40 }
  - { offsetInCU: 0x127C2, offset: 0x42CE8, size: 0x8, addend: 0x0, symName: __ZNSt3__114__split_bufferINS_6vectorIiNS_9allocatorIiEEEERNS2_IS4_EEE21_ConstructTransactionD2B7v160006Ev, symObjAddr: 0x7400, symBinAddr: 0x100016B40, symSize: 0x20 }
  - { offsetInCU: 0x127EC, offset: 0x42D12, size: 0x8, addend: 0x0, symName: __ZNSt3__116reverse_iteratorIPNS_6vectorIiNS_9allocatorIiEEEEEC1B7v160006ES5_, symObjAddr: 0x75B0, symBinAddr: 0x100016CF0, symSize: 0x30 }
  - { offsetInCU: 0x12824, offset: 0x42D4A, size: 0x8, addend: 0x0, symName: __ZNKSt3__116reverse_iteratorIPNS_6vectorIiNS_9allocatorIiEEEEE4baseB7v160006Ev, symObjAddr: 0x75E0, symBinAddr: 0x100016D20, symSize: 0x20 }
  - { offsetInCU: 0x1284A, offset: 0x42D70, size: 0x8, addend: 0x0, symName: __ZNSt3__129_AllocatorDestroyRangeReverseINS_9allocatorINS_6vectorIiNS1_IiEEEEEENS_16reverse_iteratorIPS4_EEEC1B7v160006ERS5_RS8_SB_, symObjAddr: 0x7750, symBinAddr: 0x100016DF0, symSize: 0x40 }
  - { offsetInCU: 0x128A1, offset: 0x42DC7, size: 0x8, addend: 0x0, symName: __ZNKSt3__116reverse_iteratorIPNS_6vectorIiNS_9allocatorIiEEEEEdeB7v160006Ev, symObjAddr: 0x77F0, symBinAddr: 0x100016E90, symSize: 0x30 }
  - { offsetInCU: 0x128D5, offset: 0x42DFB, size: 0x8, addend: 0x0, symName: __ZNSt3__116reverse_iteratorIPNS_6vectorIiNS_9allocatorIiEEEEEppB7v160006Ev, symObjAddr: 0x7820, symBinAddr: 0x100016EC0, symSize: 0x20 }
  - { offsetInCU: 0x128FB, offset: 0x42E21, size: 0x8, addend: 0x0, symName: __ZNSt3__128__exception_guard_exceptionsINS_29_AllocatorDestroyRangeReverseINS_9allocatorINS_6vectorIiNS2_IiEEEEEENS_16reverse_iteratorIPS5_EEEEE10__completeB7v160006Ev, symObjAddr: 0x7840, symBinAddr: 0x100016EE0, symSize: 0x20 }
  - { offsetInCU: 0x12921, offset: 0x42E47, size: 0x8, addend: 0x0, symName: __ZNSt3__128__exception_guard_exceptionsINS_29_AllocatorDestroyRangeReverseINS_9allocatorINS_6vectorIiNS2_IiEEEEEENS_16reverse_iteratorIPS5_EEEEED1B7v160006Ev, symObjAddr: 0x7860, symBinAddr: 0x100016F00, symSize: 0x20 }
  - { offsetInCU: 0x1294B, offset: 0x42E71, size: 0x8, addend: 0x0, symName: __ZNSt3__128__exception_guard_exceptionsINS_29_AllocatorDestroyRangeReverseINS_9allocatorINS_6vectorIiNS2_IiEEEEEENS_16reverse_iteratorIPS5_EEEEEC1B7v160006ESA_, symObjAddr: 0x7880, symBinAddr: 0x100016F20, symSize: 0x40 }
  - { offsetInCU: 0x12983, offset: 0x42EA9, size: 0x8, addend: 0x0, symName: __ZNSt3__128__exception_guard_exceptionsINS_29_AllocatorDestroyRangeReverseINS_9allocatorINS_6vectorIiNS2_IiEEEEEENS_16reverse_iteratorIPS5_EEEEEC2B7v160006ESA_, symObjAddr: 0x78C0, symBinAddr: 0x100016F60, symSize: 0x30 }
  - { offsetInCU: 0x129BB, offset: 0x42EE1, size: 0x8, addend: 0x0, symName: __ZNSt3__129_AllocatorDestroyRangeReverseINS_9allocatorINS_6vectorIiNS1_IiEEEEEENS_16reverse_iteratorIPS4_EEEC2B7v160006ERS5_RS8_SB_, symObjAddr: 0x78F0, symBinAddr: 0x100016F90, symSize: 0x40 }
  - { offsetInCU: 0x12A17, offset: 0x42F3D, size: 0x8, addend: 0x0, symName: __ZNSt3__119__to_address_helperINS_16reverse_iteratorIPNS_6vectorIiNS_9allocatorIiEEEEEEvE6__callB7v160006ERKS7_, symObjAddr: 0x7930, symBinAddr: 0x100016FD0, symSize: 0x50 }
  - { offsetInCU: 0x12A3A, offset: 0x42F60, size: 0x8, addend: 0x0, symName: __ZNKSt3__116reverse_iteratorIPNS_6vectorIiNS_9allocatorIiEEEEEptB7v160006Ev, symObjAddr: 0x7980, symBinAddr: 0x100017020, symSize: 0x20 }
  - { offsetInCU: 0x12A60, offset: 0x42F86, size: 0x8, addend: 0x0, symName: __ZNSt3__128__exception_guard_exceptionsINS_29_AllocatorDestroyRangeReverseINS_9allocatorINS_6vectorIiNS2_IiEEEEEENS_16reverse_iteratorIPS5_EEEEED2B7v160006Ev, symObjAddr: 0x79A0, symBinAddr: 0x100017040, symSize: 0x30 }
  - { offsetInCU: 0x12A8A, offset: 0x42FB0, size: 0x8, addend: 0x0, symName: __ZNKSt3__129_AllocatorDestroyRangeReverseINS_9allocatorINS_6vectorIiNS1_IiEEEEEENS_16reverse_iteratorIPS4_EEEclB7v160006Ev, symObjAddr: 0x79D0, symBinAddr: 0x100017070, symSize: 0xF0 }
  - { offsetInCU: 0x12AB1, offset: 0x42FD7, size: 0x8, addend: 0x0, symName: __ZNSt3__116reverse_iteratorINS0_IPNS_6vectorIiNS_9allocatorIiEEEEEEEC1B7v160006ES6_, symObjAddr: 0x7B30, symBinAddr: 0x1000171D0, symSize: 0x30 }
  - { offsetInCU: 0x12AE9, offset: 0x4300F, size: 0x8, addend: 0x0, symName: __ZNSt3__116reverse_iteratorINS0_IPNS_6vectorIiNS_9allocatorIiEEEEEEEppB7v160006Ev, symObjAddr: 0x7BD0, symBinAddr: 0x100017270, symSize: 0x30 }
  - { offsetInCU: 0x12B0F, offset: 0x43035, size: 0x8, addend: 0x0, symName: __ZNKSt3__116reverse_iteratorINS0_IPNS_6vectorIiNS_9allocatorIiEEEEEEE4baseB7v160006Ev, symObjAddr: 0x7C00, symBinAddr: 0x1000172A0, symSize: 0x20 }
  - { offsetInCU: 0x12B3A, offset: 0x43060, size: 0x8, addend: 0x0, symName: __ZNSt3__119__to_address_helperINS_16reverse_iteratorINS1_IPNS_6vectorIiNS_9allocatorIiEEEEEEEEvE6__callB7v160006ERKS8_, symObjAddr: 0x7C20, symBinAddr: 0x1000172C0, symSize: 0x50 }
  - { offsetInCU: 0x12B5D, offset: 0x43083, size: 0x8, addend: 0x0, symName: __ZNKSt3__116reverse_iteratorINS0_IPNS_6vectorIiNS_9allocatorIiEEEEEEEptB7v160006Ev, symObjAddr: 0x7C70, symBinAddr: 0x100017310, symSize: 0x20 }
  - { offsetInCU: 0x12B83, offset: 0x430A9, size: 0x8, addend: 0x0, symName: __ZNKSt3__116reverse_iteratorINS0_IPNS_6vectorIiNS_9allocatorIiEEEEEEEdeB7v160006Ev, symObjAddr: 0x7C90, symBinAddr: 0x100017330, symSize: 0x40 }
  - { offsetInCU: 0x12BB7, offset: 0x430DD, size: 0x8, addend: 0x0, symName: __ZNSt3__116reverse_iteratorIPNS_6vectorIiNS_9allocatorIiEEEEEmmB7v160006Ev, symObjAddr: 0x7CD0, symBinAddr: 0x100017370, symSize: 0x20 }
  - { offsetInCU: 0x12BDD, offset: 0x43103, size: 0x8, addend: 0x0, symName: __ZNSt3__116reverse_iteratorINS0_IPNS_6vectorIiNS_9allocatorIiEEEEEEEC2B7v160006ES6_, symObjAddr: 0x7CF0, symBinAddr: 0x100017390, symSize: 0x40 }
  - { offsetInCU: 0x12C15, offset: 0x4313B, size: 0x8, addend: 0x0, symName: __ZNSt3__116reverse_iteratorIPNS_6vectorIiNS_9allocatorIiEEEEEC2B7v160006ES5_, symObjAddr: 0x7D30, symBinAddr: 0x1000173D0, symSize: 0x30 }
  - { offsetInCU: 0x12C4D, offset: 0x43173, size: 0x8, addend: 0x0, symName: __ZNSt3__114__split_bufferINS_6vectorIiNS_9allocatorIiEEEERNS2_IS4_EEED2Ev, symObjAddr: 0x7D60, symBinAddr: 0x100017400, symSize: 0x60 }
  - { offsetInCU: 0x12C79, offset: 0x4319F, size: 0x8, addend: 0x0, symName: __ZNSt3__114__split_bufferINS_6vectorIiNS_9allocatorIiEEEERNS2_IS4_EEE5clearB7v160006Ev, symObjAddr: 0x7DC0, symBinAddr: 0x100017460, symSize: 0x20 }
  - { offsetInCU: 0x12C9F, offset: 0x431C5, size: 0x8, addend: 0x0, symName: __ZNKSt3__114__split_bufferINS_6vectorIiNS_9allocatorIiEEEERNS2_IS4_EEE8capacityB7v160006Ev, symObjAddr: 0x7DE0, symBinAddr: 0x100017480, symSize: 0x40 }
  - { offsetInCU: 0x12CC5, offset: 0x431EB, size: 0x8, addend: 0x0, symName: __ZNSt3__114__split_bufferINS_6vectorIiNS_9allocatorIiEEEERNS2_IS4_EEE17__destruct_at_endB7v160006EPS4_, symObjAddr: 0x7E20, symBinAddr: 0x1000174C0, symSize: 0x30 }
  - { offsetInCU: 0x12CF9, offset: 0x4321F, size: 0x8, addend: 0x0, symName: __ZNSt3__114__split_bufferINS_6vectorIiNS_9allocatorIiEEEERNS2_IS4_EEE17__destruct_at_endB7v160006EPS4_NS_17integral_constantIbLb0EEE, symObjAddr: 0x7E50, symBinAddr: 0x1000174F0, symSize: 0x80 }
  - { offsetInCU: 0x12D3A, offset: 0x43260, size: 0x8, addend: 0x0, symName: __ZNKSt3__114__split_bufferINS_6vectorIiNS_9allocatorIiEEEERNS2_IS4_EEE9__end_capB7v160006Ev, symObjAddr: 0x7ED0, symBinAddr: 0x100017570, symSize: 0x20 }
  - { offsetInCU: 0x12D60, offset: 0x43286, size: 0x8, addend: 0x0, symName: __ZNKSt3__117__compressed_pairIPNS_6vectorIiNS_9allocatorIiEEEERNS2_IS4_EEE5firstB7v160006Ev, symObjAddr: 0x7EF0, symBinAddr: 0x100017590, symSize: 0x20 }
  - { offsetInCU: 0x12D86, offset: 0x432AC, size: 0x8, addend: 0x0, symName: __ZNSt3__16vectorINS0_IiNS_9allocatorIiEEEENS1_IS3_EEE27__invalidate_iterators_pastB7v160006EPS3_, symObjAddr: 0x7F10, symBinAddr: 0x1000175B0, symSize: 0x10 }
  - { offsetInCU: 0x12DBD, offset: 0x432E3, size: 0x8, addend: 0x0, symName: __ZNKSt3__16vectorINS0_IiNS_9allocatorIiEEEENS1_IS3_EEE17__annotate_shrinkB7v160006Em, symObjAddr: 0x7F20, symBinAddr: 0x1000175C0, symSize: 0xA0 }
  - { offsetInCU: 0x12DF2, offset: 0x43318, size: 0x8, addend: 0x0, symName: __ZNSt3__110shared_ptrI6PlayerE4swapB7v160006ERS2_, symObjAddr: 0x7FC0, symBinAddr: 0x100017660, symSize: 0x60 }
  - { offsetInCU: 0x12E27, offset: 0x4334D, size: 0x8, addend: 0x0, symName: __ZNSt3__110shared_ptrI5EnemyE4swapB7v160006ERS2_, symObjAddr: 0x80A0, symBinAddr: 0x100017700, symSize: 0x60 }
  - { offsetInCU: 0x12E66, offset: 0x4338C, size: 0x8, addend: 0x0, symName: __ZNSt3__112basic_stringIcNS_11char_traitsIcEENS_9allocatorIcEEE13__get_pointerB7v160006Ev, symObjAddr: 0x87F0, symBinAddr: 0x1000177A0, symSize: 0x50 }
  - { offsetInCU: 0x12E8C, offset: 0x433B2, size: 0x8, addend: 0x0, symName: __ZNSt3__16chrono8durationIxNS_5ratioILl1ELl1EEEEC2B7v160006IiEERKT_PNS_9enable_ifIXaasr14is_convertibleIS8_xEE5valueooL_ZNS_17integral_constantIbLb0EE5valueEEntsr23treat_as_floating_pointIS6_EE5valueEvE4typeE, symObjAddr: 0x88A0, symBinAddr: 0x1000177F0, symSize: 0x20 }
  - { offsetInCU: 0x12ED8, offset: 0x433FE, size: 0x8, addend: 0x0, symName: __ZNSt3__16chrono8durationIdNS_5ratioILl1ELl1000EEEEC2B7v160006IiEERKT_PNS_9enable_ifIXaasr14is_convertibleIS8_dEE5valueooL_ZNS_17integral_constantIbLb1EE5valueEEntsr23treat_as_floating_pointIS6_EE5valueEvE4typeE, symObjAddr: 0x88C0, symBinAddr: 0x100017810, symSize: 0x30 }
  - { offsetInCU: 0x12F24, offset: 0x4344A, size: 0x8, addend: 0x0, symName: __ZNSt3__116allocator_traitsINS_9allocatorIcEEE37select_on_container_copy_constructionB7v160006IS2_vvEES2_RKS2_, symObjAddr: 0x89B0, symBinAddr: 0x100017840, symSize: 0x10 }
  - { offsetInCU: 0x12F53, offset: 0x43479, size: 0x8, addend: 0x0, symName: __ZNKSt3__112basic_stringIcNS_11char_traitsIcEENS_9allocatorIcEEE13get_allocatorB7v160006Ev, symObjAddr: 0x89C0, symBinAddr: 0x100017850, symSize: 0x20 }
  - { offsetInCU: 0x12F79, offset: 0x4349F, size: 0x8, addend: 0x0, symName: __ZNSt3__112basic_stringIcNS_11char_traitsIcEENS_9allocatorIcEEEC1B7v160006ENS_24__uninitialized_size_tagEmRKS4_, symObjAddr: 0x89E0, symBinAddr: 0x100017870, symSize: 0x30 }
  - { offsetInCU: 0x12FCC, offset: 0x434F2, size: 0x8, addend: 0x0, symName: __ZNSt3__111char_traitsIcE4copyEPcPKcm, symObjAddr: 0x8A20, symBinAddr: 0x1000178B0, symSize: 0x90 }
  - { offsetInCU: 0x1300B, offset: 0x43531, size: 0x8, addend: 0x0, symName: __ZNSt3__111char_traitsIcE6assignEPcmc, symObjAddr: 0x8AE0, symBinAddr: 0x100017940, symSize: 0x50 }
  - { offsetInCU: 0x1304A, offset: 0x43570, size: 0x8, addend: 0x0, symName: __ZNSt3__112basic_stringIcNS_11char_traitsIcEENS_9allocatorIcEEEC2B7v160006ENS_24__uninitialized_size_tagEmRKS4_, symObjAddr: 0x8B80, symBinAddr: 0x100017990, symSize: 0x120 }
  - { offsetInCU: 0x130CB, offset: 0x435F1, size: 0x8, addend: 0x0, symName: __ZNSt3__117__compressed_pairINS_12basic_stringIcNS_11char_traitsIcEENS_9allocatorIcEEE5__repES5_EC1B7v160006INS_18__default_init_tagERKS5_EEOT_OT0_, symObjAddr: 0x8CA0, symBinAddr: 0x100017AB0, symSize: 0x30 }
  - { offsetInCU: 0x13123, offset: 0x43649, size: 0x8, addend: 0x0, symName: __ZNKSt3__112basic_stringIcNS_11char_traitsIcEENS_9allocatorIcEEE20__throw_length_errorB7v160006Ev, symObjAddr: 0x8D70, symBinAddr: 0x100017AE0, symSize: 0x20 }
  - { offsetInCU: 0x13149, offset: 0x4366F, size: 0x8, addend: 0x0, symName: __ZNSt3__112basic_stringIcNS_11char_traitsIcEENS_9allocatorIcEEE13__fits_in_ssoB7v160006Em, symObjAddr: 0x8D90, symBinAddr: 0x100017B00, symSize: 0x40 }
  - { offsetInCU: 0x1316D, offset: 0x43693, size: 0x8, addend: 0x0, symName: __ZNSt3__117__compressed_pairINS_12basic_stringIcNS_11char_traitsIcEENS_9allocatorIcEEE5__repES5_EC2B7v160006INS_18__default_init_tagERKS5_EEOT_OT0_, symObjAddr: 0x8E20, symBinAddr: 0x100017B40, symSize: 0x40 }
  - { offsetInCU: 0x131C5, offset: 0x436EB, size: 0x8, addend: 0x0, symName: __ZNSt3__122__compressed_pair_elemINS_9allocatorIcEELi1ELb1EEC2B7v160006IRKS2_vEEOT_, symObjAddr: 0x8E60, symBinAddr: 0x100017B80, symSize: 0x10 }
  - { offsetInCU: 0x1323E, offset: 0x43764, size: 0x8, addend: 0x0, symName: __ZNKSt3__114__copy_trivialclB7v160006IKccLi0EEENS_4pairIPT_PT0_EES5_S5_S7_, symObjAddr: 0x90B0, symBinAddr: 0x100017DB0, symSize: 0x40 }
  - { offsetInCU: 0x132BF, offset: 0x437E5, size: 0x8, addend: 0x0, symName: __ZNSt3__14pairIPKcS2_EC1B7v160006ERKS2_S5_, symObjAddr: 0x9210, symBinAddr: 0x100017F10, symSize: 0x30 }
  - { offsetInCU: 0x13305, offset: 0x4382B, size: 0x8, addend: 0x0, symName: __ZNSt3__14pairIPKcS2_EC2B7v160006ERKS2_S5_, symObjAddr: 0x9240, symBinAddr: 0x100017F40, symSize: 0x30 }
  - { offsetInCU: 0x1334B, offset: 0x43871, size: 0x8, addend: 0x0, symName: __ZNSt3__118__unwrap_iter_implIPKcLb1EE8__unwrapB7v160006ES2_, symObjAddr: 0x9270, symBinAddr: 0x100017F70, symSize: 0x20 }
  - { offsetInCU: 0x1336E, offset: 0x43894, size: 0x8, addend: 0x0, symName: __ZNSt3__14pairIPKcPcEC1B7v160006ERKS2_RKS3_, symObjAddr: 0x9340, symBinAddr: 0x100018030, symSize: 0x30 }
  - { offsetInCU: 0x133B4, offset: 0x438DA, size: 0x8, addend: 0x0, symName: __ZNSt3__14pairIPKcPcEC2B7v160006ERKS2_RKS3_, symObjAddr: 0x9370, symBinAddr: 0x100018060, symSize: 0x30 }
  - { offsetInCU: 0x133FA, offset: 0x43920, size: 0x8, addend: 0x0, symName: __ZNSt3__118__unwrap_iter_implIPcLb1EE8__unwrapB7v160006ES1_, symObjAddr: 0x93A0, symBinAddr: 0x100018090, symSize: 0x20 }
  - { offsetInCU: 0x1341D, offset: 0x43943, size: 0x8, addend: 0x0, symName: __ZNSt3__118__unwrap_iter_implIPKcLb1EE8__rewrapB7v160006ES2_S2_, symObjAddr: 0x9410, symBinAddr: 0x100018100, symSize: 0x40 }
  - { offsetInCU: 0x1344E, offset: 0x43974, size: 0x8, addend: 0x0, symName: __ZNSt3__118__unwrap_iter_implIPcLb1EE8__rewrapB7v160006ES1_S1_, symObjAddr: 0x9450, symBinAddr: 0x100018140, symSize: 0x40 }
  - { offsetInCU: 0x1347F, offset: 0x439A5, size: 0x8, addend: 0x0, symName: __ZNSt3__112basic_stringIcNS_11char_traitsIcEENS_9allocatorIcEEE6appendB7v160006ERKS5_, symObjAddr: 0x95E0, symBinAddr: 0x100018220, symSize: 0x50 }
  - { offsetInCU: 0x134D2, offset: 0x439F8, size: 0x8, addend: 0x0, symName: __ZNKSt3__16chrono8durationIdNS_5ratioILl1ELl1000EEEE5countB7v160006Ev, symObjAddr: 0x9EF0, symBinAddr: 0x100018300, symSize: 0x20 }
  - { offsetInCU: 0x134F8, offset: 0x43A1E, size: 0x8, addend: 0x0, symName: __ZNSt3__16chrono8durationIdNS_5ratioILl1ELl1000EEEEC1B7v160006IxNS2_ILl1ELl1EEEEERKNS1_IT_T0_EEPNS_9enable_ifIXaasr13__no_overflowIS8_S3_EE5valueooL_ZNS_17integral_constantIbLb1EE5valueEEaaeqsr13__no_overflowIS8_S3_E4typeE3denLi1Entsr23treat_as_floating_pointIS7_EE5valueEvE4typeE, symObjAddr: 0x9F10, symBinAddr: 0x100018320, symSize: 0x30 }
  - { offsetInCU: 0x1354E, offset: 0x43A74, size: 0x8, addend: 0x0, symName: __ZNSt3__16chrono8durationIdNS_5ratioILl1ELl1000EEEEC2B7v160006IxNS2_ILl1ELl1EEEEERKNS1_IT_T0_EEPNS_9enable_ifIXaasr13__no_overflowIS8_S3_EE5valueooL_ZNS_17integral_constantIbLb1EE5valueEEaaeqsr13__no_overflowIS8_S3_E4typeE3denLi1Entsr23treat_as_floating_pointIS7_EE5valueEvE4typeE, symObjAddr: 0x9F40, symBinAddr: 0x100018350, symSize: 0x50 }
  - { offsetInCU: 0x135A4, offset: 0x43ACA, size: 0x8, addend: 0x0, symName: __ZNKSt3__16chrono8durationIxNS_5ratioILl1ELl1EEEE5countB7v160006Ev, symObjAddr: 0xA010, symBinAddr: 0x100018420, symSize: 0x20 }
  - { offsetInCU: 0x135CA, offset: 0x43AF0, size: 0x8, addend: 0x0, symName: __ZNSt3__16chrono8durationIdNS_5ratioILl1ELl1000EEEE4zeroB7v160006Ev, symObjAddr: 0xA060, symBinAddr: 0x100018470, symSize: 0x50 }
  - { offsetInCU: 0x135E8, offset: 0x43B0E, size: 0x8, addend: 0x0, symName: __ZNSt3__16chrono8durationIeNS_5ratioILl1ELl1EEEEC1B7v160006IeEERKT_PNS_9enable_ifIXaasr14is_convertibleIS8_eEE5valueooL_ZNS_17integral_constantIbLb1EE5valueEEntsr23treat_as_floating_pointIS6_EE5valueEvE4typeE, symObjAddr: 0xA0B0, symBinAddr: 0x1000184C0, symSize: 0x30 }
  - { offsetInCU: 0x13634, offset: 0x43B5A, size: 0x8, addend: 0x0, symName: __ZNSt3__16chrono8durationIxNS_5ratioILl1ELl1000000000EEEEC1B7v160006Ev, symObjAddr: 0xA0E0, symBinAddr: 0x1000184F0, symSize: 0x20 }
  - { offsetInCU: 0x1365E, offset: 0x43B84, size: 0x8, addend: 0x0, symName: __ZNSt3__16chrono8durationIxNS_5ratioILl1ELl1000000000EEEEppB7v160006Ev, symObjAddr: 0xA190, symBinAddr: 0x1000185A0, symSize: 0x20 }
  - { offsetInCU: 0x13684, offset: 0x43BAA, size: 0x8, addend: 0x0, symName: __ZNSt3__16chrono8durationIxNS_5ratioILl1ELl1000000000EEEE3maxB7v160006Ev, symObjAddr: 0xA1B0, symBinAddr: 0x1000185C0, symSize: 0x50 }
  - { offsetInCU: 0x136A2, offset: 0x43BC8, size: 0x8, addend: 0x0, symName: __ZNKSt3__16chrono13__duration_ltINS0_8durationIdNS_5ratioILl1ELl1000EEEEES5_EclB7v160006ERKS5_S8_, symObjAddr: 0xA230, symBinAddr: 0x100018640, symSize: 0x50 }
  - { offsetInCU: 0x136E6, offset: 0x43C0C, size: 0x8, addend: 0x0, symName: __ZNSt3__16chrono15duration_valuesIdE4zeroB7v160006Ev, symObjAddr: 0xA280, symBinAddr: 0x100018690, symSize: 0x10 }
  - { offsetInCU: 0x136FA, offset: 0x43C20, size: 0x8, addend: 0x0, symName: __ZNSt3__16chrono8durationIeNS_5ratioILl1ELl1EEEEC2B7v160006IeEERKT_PNS_9enable_ifIXaasr14is_convertibleIS8_eEE5valueooL_ZNS_17integral_constantIbLb1EE5valueEEntsr23treat_as_floating_pointIS6_EE5valueEvE4typeE, symObjAddr: 0xA290, symBinAddr: 0x1000186A0, symSize: 0x20 }
  - { offsetInCU: 0x13746, offset: 0x43C6C, size: 0x8, addend: 0x0, symName: __ZNSt3__16chrono8durationIxNS_5ratioILl1ELl1000000000EEEEC2B7v160006Ev, symObjAddr: 0xA2B0, symBinAddr: 0x1000186C0, symSize: 0x10 }
  - { offsetInCU: 0x13770, offset: 0x43C96, size: 0x8, addend: 0x0, symName: __ZNSt3__16chrono8durationIeNS_5ratioILl1ELl1000EEEEC1B7v160006IdS3_EERKNS1_IT_T0_EEPNS_9enable_ifIXaasr13__no_overflowIS7_S3_EE5valueooL_ZNS_17integral_constantIbLb1EE5valueEEaaeqsr13__no_overflowIS7_S3_E4typeE3denLi1Entsr23treat_as_floating_pointIS6_EE5valueEvE4typeE, symObjAddr: 0xA330, symBinAddr: 0x100018740, symSize: 0x30 }
  - { offsetInCU: 0x137C6, offset: 0x43CEC, size: 0x8, addend: 0x0, symName: __ZNKSt3__16chrono8durationIeNS_5ratioILl1ELl1000EEEE5countB7v160006Ev, symObjAddr: 0xA360, symBinAddr: 0x100018770, symSize: 0x10 }
  - { offsetInCU: 0x137EC, offset: 0x43D12, size: 0x8, addend: 0x0, symName: __ZNSt3__16chrono8durationIeNS_5ratioILl1ELl1000EEEEC1B7v160006IeNS2_ILl1ELl1EEEEERKNS1_IT_T0_EEPNS_9enable_ifIXaasr13__no_overflowIS8_S3_EE5valueooL_ZNS_17integral_constantIbLb1EE5valueEEaaeqsr13__no_overflowIS8_S3_E4typeE3denLi1Entsr23treat_as_floating_pointIS7_EE5valueEvE4typeE, symObjAddr: 0xA370, symBinAddr: 0x100018780, symSize: 0x30 }
  - { offsetInCU: 0x13842, offset: 0x43D68, size: 0x8, addend: 0x0, symName: __ZNSt3__16chrono8durationIeNS_5ratioILl1ELl1000EEEEC2B7v160006IdS3_EERKNS1_IT_T0_EEPNS_9enable_ifIXaasr13__no_overflowIS7_S3_EE5valueooL_ZNS_17integral_constantIbLb1EE5valueEEaaeqsr13__no_overflowIS7_S3_E4typeE3denLi1Entsr23treat_as_floating_pointIS6_EE5valueEvE4typeE, symObjAddr: 0xA3A0, symBinAddr: 0x1000187B0, symSize: 0x40 }
  - { offsetInCU: 0x138A2, offset: 0x43DC8, size: 0x8, addend: 0x0, symName: __ZNKSt3__16chrono15__duration_castINS0_8durationIdNS_5ratioILl1ELl1000EEEEENS2_IeS4_EENS3_ILl1ELl1EEELb1ELb1EEclB7v160006ERKS5_, symObjAddr: 0xA410, symBinAddr: 0x100018820, symSize: 0x40 }
  - { offsetInCU: 0x138D6, offset: 0x43DFC, size: 0x8, addend: 0x0, symName: __ZNSt3__16chrono8durationIeNS_5ratioILl1ELl1000EEEEC1B7v160006IeEERKT_PNS_9enable_ifIXaasr14is_convertibleIS8_eEE5valueooL_ZNS_17integral_constantIbLb1EE5valueEEntsr23treat_as_floating_pointIS6_EE5valueEvE4typeE, symObjAddr: 0xA450, symBinAddr: 0x100018860, symSize: 0x30 }
  - { offsetInCU: 0x13922, offset: 0x43E48, size: 0x8, addend: 0x0, symName: __ZNSt3__16chrono8durationIeNS_5ratioILl1ELl1000EEEEC2B7v160006IeEERKT_PNS_9enable_ifIXaasr14is_convertibleIS8_eEE5valueooL_ZNS_17integral_constantIbLb1EE5valueEEntsr23treat_as_floating_pointIS6_EE5valueEvE4typeE, symObjAddr: 0xA480, symBinAddr: 0x100018890, symSize: 0x20 }
  - { offsetInCU: 0x1396E, offset: 0x43E94, size: 0x8, addend: 0x0, symName: __ZNSt3__16chrono8durationIeNS_5ratioILl1ELl1000EEEEC2B7v160006IeNS2_ILl1ELl1EEEEERKNS1_IT_T0_EEPNS_9enable_ifIXaasr13__no_overflowIS8_S3_EE5valueooL_ZNS_17integral_constantIbLb1EE5valueEEaaeqsr13__no_overflowIS8_S3_E4typeE3denLi1Entsr23treat_as_floating_pointIS7_EE5valueEvE4typeE, symObjAddr: 0xA4A0, symBinAddr: 0x1000188B0, symSize: 0x40 }
  - { offsetInCU: 0x139C4, offset: 0x43EEA, size: 0x8, addend: 0x0, symName: __ZNKSt3__16chrono8durationIeNS_5ratioILl1ELl1EEEE5countB7v160006Ev, symObjAddr: 0xA550, symBinAddr: 0x100018960, symSize: 0x10 }
  - { offsetInCU: 0x139F4, offset: 0x43F1A, size: 0x8, addend: 0x0, symName: __ZNSt3__16chrono8durationIxNS_5ratioILl1ELl1000000000EEEEC1B7v160006IxEERKT_PNS_9enable_ifIXaasr14is_convertibleIS8_xEE5valueooL_ZNS_17integral_constantIbLb0EE5valueEEntsr23treat_as_floating_pointIS6_EE5valueEvE4typeE, symObjAddr: 0xA5B0, symBinAddr: 0x1000189C0, symSize: 0x30 }
  - { offsetInCU: 0x13A40, offset: 0x43F66, size: 0x8, addend: 0x0, symName: __ZNSt3__16chrono8durationIxNS_5ratioILl1ELl1000000000EEEEC2B7v160006IxEERKT_PNS_9enable_ifIXaasr14is_convertibleIS8_xEE5valueooL_ZNS_17integral_constantIbLb0EE5valueEEntsr23treat_as_floating_pointIS6_EE5valueEvE4typeE, symObjAddr: 0xA5E0, symBinAddr: 0x1000189F0, symSize: 0x20 }
  - { offsetInCU: 0x13A8C, offset: 0x43FB2, size: 0x8, addend: 0x0, symName: __ZNSt3__16chrono8durationIdNS_5ratioILl1ELl1000000000EEEEC1B7v160006IxS3_EERKNS1_IT_T0_EEPNS_9enable_ifIXaasr13__no_overflowIS7_S3_EE5valueooL_ZNS_17integral_constantIbLb1EE5valueEEaaeqsr13__no_overflowIS7_S3_E4typeE3denLi1Entsr23treat_as_floating_pointIS6_EE5valueEvE4typeE, symObjAddr: 0xA670, symBinAddr: 0x100018A80, symSize: 0x30 }
  - { offsetInCU: 0x13AE2, offset: 0x44008, size: 0x8, addend: 0x0, symName: __ZNKSt3__16chrono8durationIdNS_5ratioILl1ELl1000000000EEEE5countB7v160006Ev, symObjAddr: 0xA6A0, symBinAddr: 0x100018AB0, symSize: 0x20 }
  - { offsetInCU: 0x13B08, offset: 0x4402E, size: 0x8, addend: 0x0, symName: __ZNSt3__16chrono8durationIdNS_5ratioILl1ELl1000000000EEEEC1B7v160006IdNS2_ILl1ELl1000EEEEERKNS1_IT_T0_EEPNS_9enable_ifIXaasr13__no_overflowIS8_S3_EE5valueooL_ZNS_17integral_constantIbLb1EE5valueEEaaeqsr13__no_overflowIS8_S3_E4typeE3denLi1Entsr23treat_as_floating_pointIS7_EE5valueEvE4typeE, symObjAddr: 0xA6C0, symBinAddr: 0x100018AD0, symSize: 0x30 }
  - { offsetInCU: 0x13B5E, offset: 0x44084, size: 0x8, addend: 0x0, symName: __ZNSt3__16chrono8durationIdNS_5ratioILl1ELl1000000000EEEEC2B7v160006IxS3_EERKNS1_IT_T0_EEPNS_9enable_ifIXaasr13__no_overflowIS7_S3_EE5valueooL_ZNS_17integral_constantIbLb1EE5valueEEaaeqsr13__no_overflowIS7_S3_E4typeE3denLi1Entsr23treat_as_floating_pointIS6_EE5valueEvE4typeE, symObjAddr: 0xA6F0, symBinAddr: 0x100018B00, symSize: 0x50 }
  - { offsetInCU: 0x13BBE, offset: 0x440E4, size: 0x8, addend: 0x0, symName: __ZNKSt3__16chrono15__duration_castINS0_8durationIxNS_5ratioILl1ELl1000000000EEEEENS2_IdS4_EENS3_ILl1ELl1EEELb1ELb1EEclB7v160006ERKS5_, symObjAddr: 0xA770, symBinAddr: 0x100018B80, symSize: 0x40 }
  - { offsetInCU: 0x13BF2, offset: 0x44118, size: 0x8, addend: 0x0, symName: __ZNKSt3__16chrono8durationIxNS_5ratioILl1ELl1000000000EEEE5countB7v160006Ev, symObjAddr: 0xA7B0, symBinAddr: 0x100018BC0, symSize: 0x20 }
  - { offsetInCU: 0x13C18, offset: 0x4413E, size: 0x8, addend: 0x0, symName: __ZNSt3__16chrono8durationIdNS_5ratioILl1ELl1000000000EEEEC1B7v160006IdEERKT_PNS_9enable_ifIXaasr14is_convertibleIS8_dEE5valueooL_ZNS_17integral_constantIbLb1EE5valueEEntsr23treat_as_floating_pointIS6_EE5valueEvE4typeE, symObjAddr: 0xA7D0, symBinAddr: 0x100018BE0, symSize: 0x30 }
  - { offsetInCU: 0x13C64, offset: 0x4418A, size: 0x8, addend: 0x0, symName: __ZNSt3__16chrono8durationIdNS_5ratioILl1ELl1000000000EEEEC2B7v160006IdEERKT_PNS_9enable_ifIXaasr14is_convertibleIS8_dEE5valueooL_ZNS_17integral_constantIbLb1EE5valueEEntsr23treat_as_floating_pointIS6_EE5valueEvE4typeE, symObjAddr: 0xA800, symBinAddr: 0x100018C10, symSize: 0x30 }
  - { offsetInCU: 0x13CB0, offset: 0x441D6, size: 0x8, addend: 0x0, symName: __ZNSt3__16chrono8durationIdNS_5ratioILl1ELl1000000000EEEEC2B7v160006IdNS2_ILl1ELl1000EEEEERKNS1_IT_T0_EEPNS_9enable_ifIXaasr13__no_overflowIS8_S3_EE5valueooL_ZNS_17integral_constantIbLb1EE5valueEEaaeqsr13__no_overflowIS8_S3_E4typeE3denLi1Entsr23treat_as_floating_pointIS7_EE5valueEvE4typeE, symObjAddr: 0xA830, symBinAddr: 0x100018C40, symSize: 0x50 }
  - { offsetInCU: 0x13D06, offset: 0x4422C, size: 0x8, addend: 0x0, symName: __ZNSt3__16chrono15duration_valuesIxE3maxB7v160006Ev, symObjAddr: 0xA900, symBinAddr: 0x100018D10, symSize: 0x10 }
  - { offsetInCU: 0x13D1A, offset: 0x44240, size: 0x8, addend: 0x0, symName: __ZNSt3__114numeric_limitsIxE3maxB7v160006Ev, symObjAddr: 0xA910, symBinAddr: 0x100018D20, symSize: 0x10 }
  - { offsetInCU: 0x13D2E, offset: 0x44254, size: 0x8, addend: 0x0, symName: __ZNSt3__123__libcpp_numeric_limitsIxLb1EE3maxB7v160006Ev, symObjAddr: 0xA920, symBinAddr: 0x100018D30, symSize: 0x10 }
  - { offsetInCU: 0x13D42, offset: 0x44268, size: 0x8, addend: 0x0, symName: __ZNSt3__16chrono8durationIdNS_5ratioILl1ELl1000EEEEC2B7v160006IdEERKT_PNS_9enable_ifIXaasr14is_convertibleIS8_dEE5valueooL_ZNS_17integral_constantIbLb1EE5valueEEntsr23treat_as_floating_pointIS6_EE5valueEvE4typeE, symObjAddr: 0xA930, symBinAddr: 0x100018D40, symSize: 0x30 }
  - { offsetInCU: 0x13D8E, offset: 0x442B4, size: 0x8, addend: 0x0, symName: __ZNSt3__112basic_stringIcNS_11char_traitsIcEENS_9allocatorIcEEE15__make_iteratorB7v160006EPc, symObjAddr: 0xA960, symBinAddr: 0x100018D70, symSize: 0x30 }
  - { offsetInCU: 0x13DC3, offset: 0x442E9, size: 0x8, addend: 0x0, symName: __ZNSt3__111__wrap_iterIPcEC1B7v160006EPKvS1_, symObjAddr: 0xA990, symBinAddr: 0x100018DA0, symSize: 0x30 }
  - { offsetInCU: 0x13E09, offset: 0x4432F, size: 0x8, addend: 0x0, symName: __ZNSt3__111__wrap_iterIPcEC2B7v160006EPKvS1_, symObjAddr: 0xA9C0, symBinAddr: 0x100018DD0, symSize: 0x20 }
  - { offsetInCU: 0x13E4F, offset: 0x44375, size: 0x8, addend: 0x0, symName: __ZNSt3__111__wrap_iterIPKcEC2B7v160006IPcEERKNS0_IT_EEPNS_9enable_ifIXsr14is_convertibleIS6_S2_EE5valueEvE4typeE, symObjAddr: 0xA9E0, symBinAddr: 0x100018DF0, symSize: 0x40 }
  - { offsetInCU: 0x13E9B, offset: 0x443C1, size: 0x8, addend: 0x0, symName: __ZNKSt3__111__wrap_iterIPcE4baseB7v160006Ev, symObjAddr: 0xAA20, symBinAddr: 0x100018E30, symSize: 0x20 }
  - { offsetInCU: 0x13EC1, offset: 0x443E7, size: 0x8, addend: 0x0, symName: __ZNSt3__110shared_ptrI6PlayerEC2B7v160006ERKS2_, symObjAddr: 0xAAE0, symBinAddr: 0x100018EB0, symSize: 0x50 }
  - { offsetInCU: 0x13EFA, offset: 0x44420, size: 0x8, addend: 0x0, symName: __ZNSt3__110shared_ptrI5EnemyEC2B7v160006ERKS2_, symObjAddr: 0xAB30, symBinAddr: 0x100018F00, symSize: 0x50 }
  - { offsetInCU: 0x13F33, offset: 0x44459, size: 0x8, addend: 0x0, symName: __ZNSt3__110shared_ptrI7PokemonEC2B7v160006I5EnemyvEERKNS0_IT_EE, symObjAddr: 0xAB80, symBinAddr: 0x100018F50, symSize: 0x50 }
  - { offsetInCU: 0x13F76, offset: 0x4449C, size: 0x8, addend: 0x0, symName: __ZNSt3__110shared_ptrI7PokemonED2B7v160006Ev, symObjAddr: 0xABD0, symBinAddr: 0x100018FA0, symSize: 0x40 }
  - { offsetInCU: 0x13FA0, offset: 0x444C6, size: 0x8, addend: 0x0, symName: __ZNSt3__16chrono8durationIxNS_5ratioILl1ELl1EEEE4zeroB7v160006Ev, symObjAddr: 0xAC40, symBinAddr: 0x100019010, symSize: 0x50 }
  - { offsetInCU: 0x13FBE, offset: 0x444E4, size: 0x8, addend: 0x0, symName: __ZNKSt3__16chrono13__duration_ltINS0_8durationIxNS_5ratioILl1ELl1EEEEES5_EclB7v160006ERKS5_S8_, symObjAddr: 0xAD50, symBinAddr: 0x100019120, symSize: 0x50 }
  - { offsetInCU: 0x14002, offset: 0x44528, size: 0x8, addend: 0x0, symName: __ZNSt3__16chrono15duration_valuesIxE4zeroB7v160006Ev, symObjAddr: 0xADA0, symBinAddr: 0x100019170, symSize: 0x10 }
  - { offsetInCU: 0x14016, offset: 0x4453C, size: 0x8, addend: 0x0, symName: __ZNSt3__16chrono8durationIxNS_5ratioILl1ELl1EEEEC1B7v160006IxEERKT_PNS_9enable_ifIXaasr14is_convertibleIS8_xEE5valueooL_ZNS_17integral_constantIbLb0EE5valueEEntsr23treat_as_floating_pointIS6_EE5valueEvE4typeE, symObjAddr: 0xADB0, symBinAddr: 0x100019180, symSize: 0x30 }
  - { offsetInCU: 0x14062, offset: 0x44588, size: 0x8, addend: 0x0, symName: __ZNSt3__16chrono8durationIxNS_5ratioILl1ELl1EEEEC2B7v160006IxEERKT_PNS_9enable_ifIXaasr14is_convertibleIS8_xEE5valueooL_ZNS_17integral_constantIbLb0EE5valueEEntsr23treat_as_floating_pointIS6_EE5valueEvE4typeE, symObjAddr: 0xADE0, symBinAddr: 0x1000191B0, symSize: 0x20 }
  - { offsetInCU: 0x140AE, offset: 0x445D4, size: 0x8, addend: 0x0, symName: __ZNSt3__16chrono8durationIeNS_5ratioILl1ELl1EEEEC1B7v160006IxS3_EERKNS1_IT_T0_EEPNS_9enable_ifIXaasr13__no_overflowIS7_S3_EE5valueooL_ZNS_17integral_constantIbLb1EE5valueEEaaeqsr13__no_overflowIS7_S3_E4typeE3denLi1Entsr23treat_as_floating_pointIS6_EE5valueEvE4typeE, symObjAddr: 0xAE60, symBinAddr: 0x100019230, symSize: 0x30 }
  - { offsetInCU: 0x14104, offset: 0x4462A, size: 0x8, addend: 0x0, symName: __ZNSt3__16chrono8durationIeNS_5ratioILl1ELl1EEEEC2B7v160006IxS3_EERKNS1_IT_T0_EEPNS_9enable_ifIXaasr13__no_overflowIS7_S3_EE5valueooL_ZNS_17integral_constantIbLb1EE5valueEEaaeqsr13__no_overflowIS7_S3_E4typeE3denLi1Entsr23treat_as_floating_pointIS6_EE5valueEvE4typeE, symObjAddr: 0xAE90, symBinAddr: 0x100019260, symSize: 0x40 }
  - { offsetInCU: 0x14164, offset: 0x4468A, size: 0x8, addend: 0x0, symName: __ZNKSt3__16chrono15__duration_castINS0_8durationIxNS_5ratioILl1ELl1EEEEENS2_IeS4_EES4_Lb1ELb1EEclB7v160006ERKS5_, symObjAddr: 0xAF00, symBinAddr: 0x1000192D0, symSize: 0x40 }
  - { offsetInCU: 0x14198, offset: 0x446BE, size: 0x8, addend: 0x0, symName: __ZNSt3__16chrono8durationIxNS_5ratioILl1ELl1000000000EEEEC1B7v160006IxNS2_ILl1ELl1EEEEERKNS1_IT_T0_EEPNS_9enable_ifIXaasr13__no_overflowIS8_S3_EE5valueooL_ZNS_17integral_constantIbLb0EE5valueEEaaeqsr13__no_overflowIS8_S3_E4typeE3denLi1Entsr23treat_as_floating_pointIS7_EE5valueEvE4typeE, symObjAddr: 0xAFE0, symBinAddr: 0x1000193B0, symSize: 0x30 }
  - { offsetInCU: 0x141EE, offset: 0x44714, size: 0x8, addend: 0x0, symName: __ZNSt3__16chrono8durationIxNS_5ratioILl1ELl1000000000EEEEC2B7v160006IxNS2_ILl1ELl1EEEEERKNS1_IT_T0_EEPNS_9enable_ifIXaasr13__no_overflowIS8_S3_EE5valueooL_ZNS_17integral_constantIbLb0EE5valueEEaaeqsr13__no_overflowIS8_S3_E4typeE3denLi1Entsr23treat_as_floating_pointIS7_EE5valueEvE4typeE, symObjAddr: 0xB010, symBinAddr: 0x1000193E0, symSize: 0x50 }
  - { offsetInCU: 0x1424E, offset: 0x44774, size: 0x8, addend: 0x0, symName: __ZNKSt3__16__lessIddEclB7v160006ERKdS3_, symObjAddr: 0xB0B0, symBinAddr: 0x100019480, symSize: 0x30 }
  - { offsetInCU: 0x14290, offset: 0x447B6, size: 0x8, addend: 0x0, symName: __ZNSt3__110shared_ptrI7PokemonEC2B7v160006I6PlayervEERKNS0_IT_EE, symObjAddr: 0xB0E0, symBinAddr: 0x1000194B0, symSize: 0x50 }
  - { offsetInCU: 0x142D3, offset: 0x447F9, size: 0x8, addend: 0x0, symName: __ZNSt3__16chrono8durationIxNS_5ratioILl1ELl1000EEEE4zeroB7v160006Ev, symObjAddr: 0xB160, symBinAddr: 0x100019530, symSize: 0x50 }
  - { offsetInCU: 0x142F1, offset: 0x44817, size: 0x8, addend: 0x0, symName: __ZNKSt3__16chrono13__duration_ltINS0_8durationIxNS_5ratioILl1ELl1000EEEEES5_EclB7v160006ERKS5_S8_, symObjAddr: 0xB270, symBinAddr: 0x100019640, symSize: 0x50 }
  - { offsetInCU: 0x14335, offset: 0x4485B, size: 0x8, addend: 0x0, symName: __ZNKSt3__16chrono8durationIxNS_5ratioILl1ELl1000EEEE5countB7v160006Ev, symObjAddr: 0xB2C0, symBinAddr: 0x100019690, symSize: 0x20 }
  - { offsetInCU: 0x1435B, offset: 0x44881, size: 0x8, addend: 0x0, symName: __ZNSt3__16chrono8durationIxNS_5ratioILl1ELl1000EEEEC1B7v160006IxEERKT_PNS_9enable_ifIXaasr14is_convertibleIS8_xEE5valueooL_ZNS_17integral_constantIbLb0EE5valueEEntsr23treat_as_floating_pointIS6_EE5valueEvE4typeE, symObjAddr: 0xB2E0, symBinAddr: 0x1000196B0, symSize: 0x30 }
  - { offsetInCU: 0x143A7, offset: 0x448CD, size: 0x8, addend: 0x0, symName: __ZNSt3__16chrono8durationIxNS_5ratioILl1ELl1000EEEEC2B7v160006IxEERKT_PNS_9enable_ifIXaasr14is_convertibleIS8_xEE5valueooL_ZNS_17integral_constantIbLb0EE5valueEEntsr23treat_as_floating_pointIS6_EE5valueEvE4typeE, symObjAddr: 0xB310, symBinAddr: 0x1000196E0, symSize: 0x20 }
  - { offsetInCU: 0x143F3, offset: 0x44919, size: 0x8, addend: 0x0, symName: __ZNSt3__16chrono8durationIeNS_5ratioILl1ELl1000EEEEC1B7v160006IxS3_EERKNS1_IT_T0_EEPNS_9enable_ifIXaasr13__no_overflowIS7_S3_EE5valueooL_ZNS_17integral_constantIbLb1EE5valueEEaaeqsr13__no_overflowIS7_S3_E4typeE3denLi1Entsr23treat_as_floating_pointIS6_EE5valueEvE4typeE, symObjAddr: 0xB3A0, symBinAddr: 0x100019770, symSize: 0x30 }
  - { offsetInCU: 0x14449, offset: 0x4496F, size: 0x8, addend: 0x0, symName: __ZNSt3__16chrono8durationIeNS_5ratioILl1ELl1000EEEEC2B7v160006IxS3_EERKNS1_IT_T0_EEPNS_9enable_ifIXaasr13__no_overflowIS7_S3_EE5valueooL_ZNS_17integral_constantIbLb1EE5valueEEaaeqsr13__no_overflowIS7_S3_E4typeE3denLi1Entsr23treat_as_floating_pointIS6_EE5valueEvE4typeE, symObjAddr: 0xB3D0, symBinAddr: 0x1000197A0, symSize: 0x40 }
  - { offsetInCU: 0x144A9, offset: 0x449CF, size: 0x8, addend: 0x0, symName: __ZNKSt3__16chrono15__duration_castINS0_8durationIxNS_5ratioILl1ELl1000EEEEENS2_IeS4_EENS3_ILl1ELl1EEELb1ELb1EEclB7v160006ERKS5_, symObjAddr: 0xB440, symBinAddr: 0x100019810, symSize: 0x40 }
  - { offsetInCU: 0x144DD, offset: 0x44A03, size: 0x8, addend: 0x0, symName: __ZNSt3__16chrono8durationIxNS_5ratioILl1ELl1000000000EEEEC1B7v160006IxNS2_ILl1ELl1000EEEEERKNS1_IT_T0_EEPNS_9enable_ifIXaasr13__no_overflowIS8_S3_EE5valueooL_ZNS_17integral_constantIbLb0EE5valueEEaaeqsr13__no_overflowIS8_S3_E4typeE3denLi1Entsr23treat_as_floating_pointIS7_EE5valueEvE4typeE, symObjAddr: 0xB520, symBinAddr: 0x1000198F0, symSize: 0x30 }
  - { offsetInCU: 0x14533, offset: 0x44A59, size: 0x8, addend: 0x0, symName: __ZNSt3__16chrono8durationIxNS_5ratioILl1ELl1000000000EEEEC2B7v160006IxNS2_ILl1ELl1000EEEEERKNS1_IT_T0_EEPNS_9enable_ifIXaasr13__no_overflowIS8_S3_EE5valueooL_ZNS_17integral_constantIbLb0EE5valueEEaaeqsr13__no_overflowIS8_S3_E4typeE3denLi1Entsr23treat_as_floating_pointIS7_EE5valueEvE4typeE, symObjAddr: 0xB550, symBinAddr: 0x100019920, symSize: 0x50 }
  - { offsetInCU: 0x14589, offset: 0x44AAF, size: 0x8, addend: 0x0, symName: __ZNSt3__124uniform_int_distributionIiEC2Eii, symObjAddr: 0xB690, symBinAddr: 0x100019970, symSize: 0x30 }
  - { offsetInCU: 0x145CF, offset: 0x44AF5, size: 0x8, addend: 0x0, symName: __ZNSt3__124uniform_int_distributionIiE10param_typeC1Eii, symObjAddr: 0xB6C0, symBinAddr: 0x1000199A0, symSize: 0x30 }
  - { offsetInCU: 0x14615, offset: 0x44B3B, size: 0x8, addend: 0x0, symName: __ZNSt3__124uniform_int_distributionIiE10param_typeC2Eii, symObjAddr: 0xB6F0, symBinAddr: 0x1000199D0, symSize: 0x20 }
  - { offsetInCU: 0x1465B, offset: 0x44B81, size: 0x8, addend: 0x0, symName: __ZNKSt3__124uniform_int_distributionIiE10param_type1bEv, symObjAddr: 0xB860, symBinAddr: 0x100019B40, symSize: 0x20 }
  - { offsetInCU: 0x14681, offset: 0x44BA7, size: 0x8, addend: 0x0, symName: __ZNKSt3__124uniform_int_distributionIiE10param_type1aEv, symObjAddr: 0xB880, symBinAddr: 0x100019B60, symSize: 0x10 }
  - { offsetInCU: 0x146A7, offset: 0x44BCD, size: 0x8, addend: 0x0, symName: __ZNSt3__125__independent_bits_engineINS_23mersenne_twister_engineIjLm32ELm624ELm397ELm31ELj2567483615ELm11ELj4294967295ELm7ELj2636928640ELm15ELj4022730752ELm18ELj1812433253EEEjEC1ERS2_m, symObjAddr: 0xB890, symBinAddr: 0x100019B70, symSize: 0x30 }
  - { offsetInCU: 0x146EE, offset: 0x44C14, size: 0x8, addend: 0x0, symName: __ZNSt3__125__independent_bits_engineINS_23mersenne_twister_engineIjLm32ELm624ELm397ELm31ELj2567483615ELm11ELj4294967295ELm7ELj2636928640ELm15ELj4022730752ELm18ELj1812433253EEEjEclEv, symObjAddr: 0xB8C0, symBinAddr: 0x100019BA0, symSize: 0x20 }
  - { offsetInCU: 0x14714, offset: 0x44C3A, size: 0x8, addend: 0x0, symName: __ZNSt3__114numeric_limitsIjE3maxB7v160006Ev, symObjAddr: 0xB920, symBinAddr: 0x100019C00, symSize: 0x10 }
  - { offsetInCU: 0x14728, offset: 0x44C4E, size: 0x8, addend: 0x0, symName: __ZNSt3__125__independent_bits_engineINS_23mersenne_twister_engineIjLm32ELm624ELm397ELm31ELj2567483615ELm11ELj4294967295ELm7ELj2636928640ELm15ELj4022730752ELm18ELj1812433253EEEjEC2ERS2_m, symObjAddr: 0xB930, symBinAddr: 0x100019C10, symSize: 0x1D0 }
  - { offsetInCU: 0x1476F, offset: 0x44C95, size: 0x8, addend: 0x0, symName: __ZNSt3__125__independent_bits_engineINS_23mersenne_twister_engineIjLm32ELm624ELm397ELm31ELj2567483615ELm11ELj4294967295ELm7ELj2636928640ELm15ELj4022730752ELm18ELj1812433253EEEjE6__evalENS_17integral_constantIbLb0EEE, symObjAddr: 0xBB00, symBinAddr: 0x100019DE0, symSize: 0x30 }
  - { offsetInCU: 0x147A1, offset: 0x44CC7, size: 0x8, addend: 0x0, symName: __ZNSt3__123__libcpp_numeric_limitsIjLb1EE3maxB7v160006Ev, symObjAddr: 0xBCF0, symBinAddr: 0x100019E30, symSize: 0x10 }
  - { offsetInCU: 0x147B5, offset: 0x44CDB, size: 0x8, addend: 0x0, symName: __ZNSt3__16chrono8durationIiNS_5ratioILl1ELl48EEEEC2B7v160006IiEERKT_PNS_9enable_ifIXaasr14is_convertibleIS8_iEE5valueooL_ZNS_17integral_constantIbLb0EE5valueEEntsr23treat_as_floating_pointIS6_EE5valueEvE4typeE, symObjAddr: 0xBD00, symBinAddr: 0x100019E40, symSize: 0x20 }
  - { offsetInCU: 0x14801, offset: 0x44D27, size: 0x8, addend: 0x0, symName: __ZNSt3__16chrono8durationIiNS_5ratioILl1ELl48EEEE4zeroB7v160006Ev, symObjAddr: 0xBD50, symBinAddr: 0x100019E90, symSize: 0x50 }
  - { offsetInCU: 0x1481F, offset: 0x44D45, size: 0x8, addend: 0x0, symName: __ZNKSt3__16chrono13__duration_ltINS0_8durationIiNS_5ratioILl1ELl48EEEEES5_EclB7v160006ERKS5_S8_, symObjAddr: 0xBE60, symBinAddr: 0x100019FA0, symSize: 0x40 }
  - { offsetInCU: 0x14863, offset: 0x44D89, size: 0x8, addend: 0x0, symName: __ZNKSt3__16chrono8durationIiNS_5ratioILl1ELl48EEEE5countB7v160006Ev, symObjAddr: 0xBEA0, symBinAddr: 0x100019FE0, symSize: 0x10 }
  - { offsetInCU: 0x14889, offset: 0x44DAF, size: 0x8, addend: 0x0, symName: __ZNSt3__16chrono15duration_valuesIiE4zeroB7v160006Ev, symObjAddr: 0xBEB0, symBinAddr: 0x100019FF0, symSize: 0x10 }
  - { offsetInCU: 0x1489D, offset: 0x44DC3, size: 0x8, addend: 0x0, symName: __ZNSt3__16chrono8durationIeNS_5ratioILl1ELl48EEEEC1B7v160006IiS3_EERKNS1_IT_T0_EEPNS_9enable_ifIXaasr13__no_overflowIS7_S3_EE5valueooL_ZNS_17integral_constantIbLb1EE5valueEEaaeqsr13__no_overflowIS7_S3_E4typeE3denLi1Entsr23treat_as_floating_pointIS6_EE5valueEvE4typeE, symObjAddr: 0xBF30, symBinAddr: 0x10001A070, symSize: 0x30 }
  - { offsetInCU: 0x148F3, offset: 0x44E19, size: 0x8, addend: 0x0, symName: __ZNKSt3__16chrono8durationIeNS_5ratioILl1ELl48EEEE5countB7v160006Ev, symObjAddr: 0xBF60, symBinAddr: 0x10001A0A0, symSize: 0x10 }
  - { offsetInCU: 0x14919, offset: 0x44E3F, size: 0x8, addend: 0x0, symName: __ZNSt3__16chrono8durationIeNS_5ratioILl1ELl48EEEEC1B7v160006IeNS2_ILl1ELl1EEEEERKNS1_IT_T0_EEPNS_9enable_ifIXaasr13__no_overflowIS8_S3_EE5valueooL_ZNS_17integral_constantIbLb1EE5valueEEaaeqsr13__no_overflowIS8_S3_E4typeE3denLi1Entsr23treat_as_floating_pointIS7_EE5valueEvE4typeE, symObjAddr: 0xBF70, symBinAddr: 0x10001A0B0, symSize: 0x30 }
  - { offsetInCU: 0x1496F, offset: 0x44E95, size: 0x8, addend: 0x0, symName: __ZNSt3__16chrono8durationIeNS_5ratioILl1ELl48EEEEC2B7v160006IiS3_EERKNS1_IT_T0_EEPNS_9enable_ifIXaasr13__no_overflowIS7_S3_EE5valueooL_ZNS_17integral_constantIbLb1EE5valueEEaaeqsr13__no_overflowIS7_S3_E4typeE3denLi1Entsr23treat_as_floating_pointIS6_EE5valueEvE4typeE, symObjAddr: 0xBFA0, symBinAddr: 0x10001A0E0, symSize: 0x40 }
  - { offsetInCU: 0x149CF, offset: 0x44EF5, size: 0x8, addend: 0x0, symName: __ZNKSt3__16chrono15__duration_castINS0_8durationIiNS_5ratioILl1ELl48EEEEENS2_IeS4_EENS3_ILl1ELl1EEELb1ELb1EEclB7v160006ERKS5_, symObjAddr: 0xC010, symBinAddr: 0x10001A150, symSize: 0x40 }
  - { offsetInCU: 0x14A03, offset: 0x44F29, size: 0x8, addend: 0x0, symName: __ZNSt3__16chrono8durationIeNS_5ratioILl1ELl48EEEEC1B7v160006IeEERKT_PNS_9enable_ifIXaasr14is_convertibleIS8_eEE5valueooL_ZNS_17integral_constantIbLb1EE5valueEEntsr23treat_as_floating_pointIS6_EE5valueEvE4typeE, symObjAddr: 0xC050, symBinAddr: 0x10001A190, symSize: 0x30 }
  - { offsetInCU: 0x14A4F, offset: 0x44F75, size: 0x8, addend: 0x0, symName: __ZNSt3__16chrono8durationIeNS_5ratioILl1ELl48EEEEC2B7v160006IeEERKT_PNS_9enable_ifIXaasr14is_convertibleIS8_eEE5valueooL_ZNS_17integral_constantIbLb1EE5valueEEntsr23treat_as_floating_pointIS6_EE5valueEvE4typeE, symObjAddr: 0xC080, symBinAddr: 0x10001A1C0, symSize: 0x20 }
  - { offsetInCU: 0x14A9B, offset: 0x44FC1, size: 0x8, addend: 0x0, symName: __ZNSt3__16chrono8durationIeNS_5ratioILl1ELl48EEEEC2B7v160006IeNS2_ILl1ELl1EEEEERKNS1_IT_T0_EEPNS_9enable_ifIXaasr13__no_overflowIS8_S3_EE5valueooL_ZNS_17integral_constantIbLb1EE5valueEEaaeqsr13__no_overflowIS8_S3_E4typeE3denLi1Entsr23treat_as_floating_pointIS7_EE5valueEvE4typeE, symObjAddr: 0xC0A0, symBinAddr: 0x10001A1E0, symSize: 0x40 }
  - { offsetInCU: 0x14AF1, offset: 0x45017, size: 0x8, addend: 0x0, symName: __ZNSt3__16chrono8durationIxNS_5ratioILl1ELl3000000000EEEEC1B7v160006IxNS2_ILl1ELl1000000000EEEEERKNS1_IT_T0_EEPNS_9enable_ifIXaasr13__no_overflowIS8_S3_EE5valueooL_ZNS_17integral_constantIbLb0EE5valueEEaaeqsr13__no_overflowIS8_S3_E4typeE3denLi1Entsr23treat_as_floating_pointIS7_EE5valueEvE4typeE, symObjAddr: 0xC210, symBinAddr: 0x10001A350, symSize: 0x30 }
  - { offsetInCU: 0x14B47, offset: 0x4506D, size: 0x8, addend: 0x0, symName: __ZNKSt3__16chrono8durationIxNS_5ratioILl1ELl3000000000EEEE5countB7v160006Ev, symObjAddr: 0xC240, symBinAddr: 0x10001A380, symSize: 0x20 }
  - { offsetInCU: 0x14B6D, offset: 0x45093, size: 0x8, addend: 0x0, symName: __ZNSt3__16chrono8durationIxNS_5ratioILl1ELl3000000000EEEEC1B7v160006IiNS2_ILl1ELl48EEEEERKNS1_IT_T0_EEPNS_9enable_ifIXaasr13__no_overflowIS8_S3_EE5valueooL_ZNS_17integral_constantIbLb0EE5valueEEaaeqsr13__no_overflowIS8_S3_E4typeE3denLi1Entsr23treat_as_floating_pointIS7_EE5valueEvE4typeE, symObjAddr: 0xC260, symBinAddr: 0x10001A3A0, symSize: 0x30 }
  - { offsetInCU: 0x14BC3, offset: 0x450E9, size: 0x8, addend: 0x0, symName: __ZNSt3__16chrono8durationIxNS_5ratioILl1ELl3000000000EEEEC2B7v160006IxNS2_ILl1ELl1000000000EEEEERKNS1_IT_T0_EEPNS_9enable_ifIXaasr13__no_overflowIS8_S3_EE5valueooL_ZNS_17integral_constantIbLb0EE5valueEEaaeqsr13__no_overflowIS8_S3_E4typeE3denLi1Entsr23treat_as_floating_pointIS7_EE5valueEvE4typeE, symObjAddr: 0xC290, symBinAddr: 0x10001A3D0, symSize: 0x50 }
  - { offsetInCU: 0x14C19, offset: 0x4513F, size: 0x8, addend: 0x0, symName: __ZNSt3__16chrono8durationIxNS_5ratioILl1ELl3000000000EEEEC1B7v160006IxEERKT_PNS_9enable_ifIXaasr14is_convertibleIS8_xEE5valueooL_ZNS_17integral_constantIbLb0EE5valueEEntsr23treat_as_floating_pointIS6_EE5valueEvE4typeE, symObjAddr: 0xC350, symBinAddr: 0x10001A490, symSize: 0x30 }
  - { offsetInCU: 0x14C65, offset: 0x4518B, size: 0x8, addend: 0x0, symName: __ZNSt3__16chrono8durationIxNS_5ratioILl1ELl3000000000EEEEC2B7v160006IxEERKT_PNS_9enable_ifIXaasr14is_convertibleIS8_xEE5valueooL_ZNS_17integral_constantIbLb0EE5valueEEntsr23treat_as_floating_pointIS6_EE5valueEvE4typeE, symObjAddr: 0xC380, symBinAddr: 0x10001A4C0, symSize: 0x20 }
  - { offsetInCU: 0x14CB1, offset: 0x451D7, size: 0x8, addend: 0x0, symName: __ZNSt3__16chrono8durationIxNS_5ratioILl1ELl3000000000EEEEC2B7v160006IiNS2_ILl1ELl48EEEEERKNS1_IT_T0_EEPNS_9enable_ifIXaasr13__no_overflowIS8_S3_EE5valueooL_ZNS_17integral_constantIbLb0EE5valueEEaaeqsr13__no_overflowIS8_S3_E4typeE3denLi1Entsr23treat_as_floating_pointIS7_EE5valueEvE4typeE, symObjAddr: 0xC3A0, symBinAddr: 0x10001A4E0, symSize: 0x50 }
  - { offsetInCU: 0x465F, offset: 0x49A61, size: 0x8, addend: 0x0, symName: __Z10printColorNSt3__112basic_stringIcNS_11char_traitsIcEENS_9allocatorIcEEEES5_S5_b, symObjAddr: 0x0, symBinAddr: 0x10001A5B0, symSize: 0x90 }
  - { offsetInCU: 0x46B4, offset: 0x49AB6, size: 0x8, addend: 0x0, symName: __Z10printColorNSt3__112basic_stringIcNS_11char_traitsIcEENS_9allocatorIcEEEES5_b, symObjAddr: 0x120, symBinAddr: 0x10001A640, symSize: 0x70 }
  - { offsetInCU: 0x46FA, offset: 0x49AFC, size: 0x8, addend: 0x0, symName: __Z10printColorNSt3__112basic_stringIcNS_11char_traitsIcEENS_9allocatorIcEEEES5_ib, symObjAddr: 0x190, symBinAddr: 0x10001A6B0, symSize: 0x70 }
  - { offsetInCU: 0x34C6, offset: 0x4D016, size: 0x8, addend: 0x0, symName: __ZN5Enemy17chooseChosenSkillEv, symObjAddr: 0x0, symBinAddr: 0x10001A720, symSize: 0x110 }
  - { offsetInCU: 0x351A, offset: 0x4D06A, size: 0x8, addend: 0x0, symName: __ZN5Enemy11chooseSkillEi, symObjAddr: 0x1E0, symBinAddr: 0x10001A830, symSize: 0x230 }
  - { offsetInCU: 0x35B4, offset: 0x4D104, size: 0x8, addend: 0x0, symName: __ZN5Enemy10attackModeEv, symObjAddr: 0x590, symBinAddr: 0x10001AA60, symSize: 0x10 }
  - { offsetInCU: 0x9F59, offset: 0x570A0, size: 0x8, addend: 0x0, symName: __ZNSt3__14leftB7v160006ERNS_8ios_baseE, symObjAddr: 0x24B0, symBinAddr: 0x10001CDE0, symSize: 0x30 }
  - { offsetInCU: 0xAA9B, offset: 0x57BE2, size: 0x8, addend: 0x0, symName: __ZNSt3__111make_sharedB7v160006I6PlayerJRiEvEENS_10shared_ptrIT_EEDpOT0_, symObjAddr: 0x2600, symBinAddr: 0x10001CE60, symSize: 0x40 }
  - { offsetInCU: 0xAADE, offset: 0x57C25, size: 0x8, addend: 0x0, symName: __ZNSt3__111make_sharedB7v160006I5EnemyJRiEvEENS_10shared_ptrIT_EEDpOT0_, symObjAddr: 0x2660, symBinAddr: 0x10001CEC0, symSize: 0x40 }
  - { offsetInCU: 0xAD0B, offset: 0x57E52, size: 0x8, addend: 0x0, symName: __ZNSt3__17getlineB7v160006IcNS_11char_traitsIcEENS_9allocatorIcEEEERNS_13basic_istreamIT_T0_EES9_RNS_12basic_stringIS6_S7_T1_EE, symObjAddr: 0x2830, symBinAddr: 0x10001CFF0, symSize: 0x50 }
  - { offsetInCU: 0xAD6E, offset: 0x57EB5, size: 0x8, addend: 0x0, symName: __ZNSt3__115allocate_sharedB7v160006I6PlayerNS_9allocatorIS1_EEJRiEvEENS_10shared_ptrIT_EERKT0_DpOT1_, symObjAddr: 0x4090, symBinAddr: 0x10001D3E0, symSize: 0xB0 }
  - { offsetInCU: 0xBDB5, offset: 0x58EFC, size: 0x8, addend: 0x0, symName: __ZNSt3__122__make_exception_guardB7v160006INS_6vectorINS_10shared_ptrI5SkillEENS_9allocatorIS4_EEE16__destroy_vectorEEENS_28__exception_guard_exceptionsIT_EESA_, symObjAddr: 0x6D70, symBinAddr: 0x10001DE20, symSize: 0x40 }
  - { offsetInCU: 0xBDEA, offset: 0x58F31, size: 0x8, addend: 0x0, symName: __ZNSt3__130__uninitialized_allocator_copyB7v160006INS_9allocatorINS_10shared_ptrI5SkillEEEEPS4_S6_S6_EET2_RT_T0_T1_S7_, symObjAddr: 0x7460, symBinAddr: 0x10001E080, symSize: 0x110 }
  - { offsetInCU: 0xBE88, offset: 0x58FCF, size: 0x8, addend: 0x0, symName: __ZNSt3__122__make_exception_guardB7v160006INS_29_AllocatorDestroyRangeReverseINS_9allocatorINS_10shared_ptrI5SkillEEEEPS5_EEEENS_28__exception_guard_exceptionsIT_EESA_, symObjAddr: 0x75D0, symBinAddr: 0x10001E190, symSize: 0x60 }
  - { offsetInCU: 0xBEBD, offset: 0x59004, size: 0x8, addend: 0x0, symName: __ZNSt3__119__allocator_destroyB7v160006INS_9allocatorINS_10shared_ptrI5SkillEEEENS_16reverse_iteratorIPS4_EES8_EEvRT_T0_T1_, symObjAddr: 0x7940, symBinAddr: 0x10001E410, symSize: 0x70 }
  - { offsetInCU: 0xBF53, offset: 0x5909A, size: 0x8, addend: 0x0, symName: __ZNSt3__119__debug_db_insert_cB7v160006INS_6vectorINS_10shared_ptrI5EnemyEENS_9allocatorIS4_EEEEEEvPT_, symObjAddr: 0x8A90, symBinAddr: 0x10001E990, symSize: 0x10 }
  - { offsetInCU: 0xBF84, offset: 0x590CB, size: 0x8, addend: 0x0, symName: __ZNSt3__118__debug_db_erase_cB7v160006INS_6vectorINS_10shared_ptrI5EnemyEENS_9allocatorIS4_EEEEEEvPT_, symObjAddr: 0x8D10, symBinAddr: 0x10001EC10, symSize: 0x10 }
  - { offsetInCU: 0xBFB5, offset: 0x590FC, size: 0x8, addend: 0x0, symName: __ZNSt3__112__to_addressB7v160006INS_10shared_ptrI5EnemyEEEEPT_S5_, symObjAddr: 0x8E20, symBinAddr: 0x10001ED20, symSize: 0x10 }
  - { offsetInCU: 0xBFEA, offset: 0x59131, size: 0x8, addend: 0x0, symName: __ZNSt3__115allocate_sharedB7v160006I5EnemyNS_9allocatorIS1_EEJRiEvEENS_10shared_ptrIT_EERKT0_DpOT1_, symObjAddr: 0x9000, symBinAddr: 0x10001EF00, symSize: 0xB0 }
  - { offsetInCU: 0xC32C, offset: 0x59473, size: 0x8, addend: 0x0, symName: __ZNSt3__119__allocate_at_leastB7v160006INS_9allocatorINS_10shared_ptrI5EnemyEEEEEENS_19__allocation_resultINS_16allocator_traitsIT_E7pointerEEERS8_m, symObjAddr: 0xA340, symBinAddr: 0x100020140, symSize: 0x40 }
  - { offsetInCU: 0xC36F, offset: 0x594B6, size: 0x8, addend: 0x0, symName: __ZNSt3__142__uninitialized_allocator_move_if_noexceptB7v160006INS_9allocatorINS_10shared_ptrI5EnemyEEEENS_16reverse_iteratorIPS4_EES8_S8_EET2_RT_T0_T1_S9_, symObjAddr: 0xA500, symBinAddr: 0x100020300, symSize: 0x190 }
  - { offsetInCU: 0xC40E, offset: 0x59555, size: 0x8, addend: 0x0, symName: __ZNSt3__14swapB7v160006IPNS_10shared_ptrI5EnemyEEEEvRT_S6_, symObjAddr: 0xA6E0, symBinAddr: 0x1000204E0, symSize: 0x40 }
  - { offsetInCU: 0xC45F, offset: 0x595A6, size: 0x8, addend: 0x0, symName: __ZNSt3__125__debug_db_invalidate_allB7v160006INS_6vectorINS_10shared_ptrI5EnemyEENS_9allocatorIS4_EEEEEEvPT_, symObjAddr: 0xA7D0, symBinAddr: 0x1000205D0, symSize: 0x10 }
  - { offsetInCU: 0xC490, offset: 0x595D7, size: 0x8, addend: 0x0, symName: __ZNSt3__122__make_exception_guardB7v160006INS_29_AllocatorDestroyRangeReverseINS_9allocatorINS_10shared_ptrI5EnemyEEEENS_16reverse_iteratorIPS5_EEEEEENS_28__exception_guard_exceptionsIT_EESC_, symObjAddr: 0xA7E0, symBinAddr: 0x1000205E0, symSize: 0x60 }
  - { offsetInCU: 0xC4C5, offset: 0x5960C, size: 0x8, addend: 0x0, symName: __ZNSt3__1neB7v160006IPNS_10shared_ptrI5EnemyEES4_EEbRKNS_16reverse_iteratorIT_EERKNS5_IT0_EE, symObjAddr: 0xA880, symBinAddr: 0x100020680, symSize: 0x40 }
  - { offsetInCU: 0xC511, offset: 0x59658, size: 0x8, addend: 0x0, symName: __ZNSt3__112__to_addressB7v160006INS_16reverse_iteratorIPNS_10shared_ptrI5EnemyEEEEvEENS_5decayIDTclsr19__to_address_helperIT_EE6__callclsr3stdE7declvalIRKS8_EEEEE4typeESA_, symObjAddr: 0xA8C0, symBinAddr: 0x1000206C0, symSize: 0x20 }
  - { offsetInCU: 0xC570, offset: 0x596B7, size: 0x8, addend: 0x0, symName: __ZNSt3__119__allocator_destroyB7v160006INS_9allocatorINS_10shared_ptrI5EnemyEEEENS_16reverse_iteratorINS6_IPS4_EEEES9_EEvRT_T0_T1_, symObjAddr: 0xABB0, symBinAddr: 0x1000209B0, symSize: 0x70 }
  - { offsetInCU: 0xC5D3, offset: 0x5971A, size: 0x8, addend: 0x0, symName: __ZNSt3__1neB7v160006INS_16reverse_iteratorIPNS_10shared_ptrI5EnemyEEEES6_EEbRKNS1_IT_EERKNS1_IT0_EE, symObjAddr: 0xAC50, symBinAddr: 0x100020A50, symSize: 0x50 }
  - { offsetInCU: 0xC61F, offset: 0x59766, size: 0x8, addend: 0x0, symName: __ZNSt3__112__to_addressB7v160006INS_16reverse_iteratorINS1_IPNS_10shared_ptrI5EnemyEEEEEEvEENS_5decayIDTclsr19__to_address_helperIT_EE6__callclsr3stdE7declvalIRKS9_EEEEE4typeESB_, symObjAddr: 0xACA0, symBinAddr: 0x100020AA0, symSize: 0x20 }
  - { offsetInCU: 0xC67E, offset: 0x597C5, size: 0x8, addend: 0x0, symName: __ZNSt3__17getlineB7v160006IcNS_11char_traitsIcEENS_9allocatorIcEEEERNS_13basic_istreamIT_T0_EES9_RNS_12basic_stringIS6_S7_T1_EES6_, symObjAddr: 0xB670, symBinAddr: 0x100021070, symSize: 0x220 }
  - { offsetInCU: 0xD300, offset: 0x5A447, size: 0x8, addend: 0x0, symName: __ZNSt3__16vectorINS_10shared_ptrI5EnemyEENS_9allocatorIS3_EEE26__swap_out_circular_bufferERNS_14__split_bufferIS3_RS5_EE, symObjAddr: 0x9F50, symBinAddr: 0x10001FDD0, symSize: 0x130 }
  - { offsetInCU: 0xD492, offset: 0x5A5D9, size: 0x8, addend: 0x0, symName: __Z7toloweri, symObjAddr: 0x2C80, symBinAddr: 0x10001D1E0, symSize: 0x20 }
  - { offsetInCU: 0xF224, offset: 0x5C36B, size: 0x8, addend: 0x0, symName: _main, symObjAddr: 0x0, symBinAddr: 0x10001AA70, symSize: 0x2150 }
  - { offsetInCU: 0xF57E, offset: 0x5C6C5, size: 0x8, addend: 0x0, symName: __ZNSt3__114basic_ifstreamIcNS_11char_traitsIcEEEC1EPKcj, symObjAddr: 0x2150, symBinAddr: 0x10001CBC0, symSize: 0x180 }
  - { offsetInCU: 0xF5C8, offset: 0x5C70F, size: 0x8, addend: 0x0, symName: __ZNKSt3__19basic_iosIcNS_11char_traitsIcEEEcvPvB7v160006Ev, symObjAddr: 0x22D0, symBinAddr: 0x10001CD40, symSize: 0x50 }
  - { offsetInCU: 0xF5EE, offset: 0x5C735, size: 0x8, addend: 0x0, symName: __ZNSt3__114basic_ifstreamIcNS_11char_traitsIcEEE5closeEv, symObjAddr: 0x2320, symBinAddr: 0x10001CD90, symSize: 0x50 }
  - { offsetInCU: 0xF6A2, offset: 0x5C7E9, size: 0x8, addend: 0x0, symName: __ZNKSt3__19basic_iosIcNS_11char_traitsIcEEE4failB7v160006Ev, symObjAddr: 0x25B0, symBinAddr: 0x10001CE10, symSize: 0x20 }
  - { offsetInCU: 0xF6C8, offset: 0x5C80F, size: 0x8, addend: 0x0, symName: __ZNSt3__19basic_iosIcNS_11char_traitsIcEEE5clearB7v160006Ej, symObjAddr: 0x25D0, symBinAddr: 0x10001CE30, symSize: 0x30 }
  - { offsetInCU: 0xF6FD, offset: 0x5C844, size: 0x8, addend: 0x0, symName: __ZNSt3__16vectorINS_10shared_ptrI5EnemyEENS_9allocatorIS3_EEEC1B7v160006Ev, symObjAddr: 0x2640, symBinAddr: 0x10001CEA0, symSize: 0x20 }
  - { offsetInCU: 0xF727, offset: 0x5C86E, size: 0x8, addend: 0x0, symName: __ZNSt3__16vectorINS_10shared_ptrI5EnemyEENS_9allocatorIS3_EEE9push_backB7v160006ERKS3_, symObjAddr: 0x26C0, symBinAddr: 0x10001CF00, symSize: 0x60 }
  - { offsetInCU: 0xF75E, offset: 0x5C8A5, size: 0x8, addend: 0x0, symName: __ZNSt3__16vectorINS_10shared_ptrI5EnemyEENS_9allocatorIS3_EEE9push_backB7v160006EOS3_, symObjAddr: 0x2740, symBinAddr: 0x10001CF60, symSize: 0x60 }
  - { offsetInCU: 0xF795, offset: 0x5C8DC, size: 0x8, addend: 0x0, symName: __ZNSt3__110shared_ptrI5EnemyEC1B7v160006EDn, symObjAddr: 0x27A0, symBinAddr: 0x10001CFC0, symSize: 0x30 }
  - { offsetInCU: 0xF7EC, offset: 0x5C933, size: 0x8, addend: 0x0, symName: __Z11str_tolowerNSt3__112basic_stringIcNS_11char_traitsIcEENS_9allocatorIcEEEE, symObjAddr: 0x2930, symBinAddr: 0x10001D040, symSize: 0xA0 }
  - { offsetInCU: 0xF839, offset: 0x5C980, size: 0x8, addend: 0x0, symName: __ZN7Pokemon11getSkillNumEv, symObjAddr: 0x29D0, symBinAddr: 0x10001D0E0, symSize: 0x20 }
  - { offsetInCU: 0xF85F, offset: 0x5C9A6, size: 0x8, addend: 0x0, symName: __ZNSt3__16vectorINS_10shared_ptrI5EnemyEENS_9allocatorIS3_EEEixB7v160006Em, symObjAddr: 0x29F0, symBinAddr: 0x10001D100, symSize: 0x20 }
  - { offsetInCU: 0xF896, offset: 0x5C9DD, size: 0x8, addend: 0x0, symName: __ZN5Enemy13setDifficultyEi, symObjAddr: 0x2A10, symBinAddr: 0x10001D120, symSize: 0x20 }
  - { offsetInCU: 0xF8CA, offset: 0x5CA11, size: 0x8, addend: 0x0, symName: __ZNSt3__16vectorINS_10shared_ptrI5EnemyEENS_9allocatorIS3_EEED1B7v160006Ev, symObjAddr: 0x2BC0, symBinAddr: 0x10001D140, symSize: 0x20 }
  - { offsetInCU: 0xF8F9, offset: 0x5CA40, size: 0x8, addend: 0x0, symName: __ZNSt3__114basic_ifstreamIcNS_11char_traitsIcEEED1Ev, symObjAddr: 0x2BE0, symBinAddr: 0x10001D160, symSize: 0x80 }
  - { offsetInCU: 0xF926, offset: 0x5CA6D, size: 0x8, addend: 0x0, symName: __ZNSt3__114basic_ifstreamIcNS_11char_traitsIcEEED2Ev, symObjAddr: 0x2DB0, symBinAddr: 0x10001D200, symSize: 0xA0 }
  - { offsetInCU: 0xF960, offset: 0x5CAA7, size: 0x8, addend: 0x0, symName: __ZTv0_n24_NSt3__114basic_ifstreamIcNS_11char_traitsIcEEED1Ev, symObjAddr: 0x2E50, symBinAddr: 0x10001D2A0, symSize: 0x20 }
  - { offsetInCU: 0xF977, offset: 0x5CABE, size: 0x8, addend: 0x0, symName: __ZNSt3__19basic_iosIcNS_11char_traitsIcEEEC2B7v160006Ev, symObjAddr: 0x3390, symBinAddr: 0x10001D2C0, symSize: 0x40 }
  - { offsetInCU: 0xF9A1, offset: 0x5CAE8, size: 0x8, addend: 0x0, symName: __ZNSt3__113basic_istreamIcNS_11char_traitsIcEEEC2B7v160006EPNS_15basic_streambufIcS2_EE, symObjAddr: 0x33D0, symBinAddr: 0x10001D300, symSize: 0x50 }
  - { offsetInCU: 0xF9E6, offset: 0x5CB2D, size: 0x8, addend: 0x0, symName: __ZNSt3__18ios_baseC2B7v160006Ev, symObjAddr: 0x3450, symBinAddr: 0x10001D350, symSize: 0x20 }
  - { offsetInCU: 0xFA10, offset: 0x5CB57, size: 0x8, addend: 0x0, symName: __ZNSt3__19basic_iosIcNS_11char_traitsIcEEE4initB7v160006EPNS_15basic_streambufIcS2_EE, symObjAddr: 0x3470, symBinAddr: 0x10001D370, symSize: 0x50 }
  - { offsetInCU: 0xFA4C, offset: 0x5CB93, size: 0x8, addend: 0x0, symName: __ZNKSt3__18ios_base4failB7v160006Ev, symObjAddr: 0x4070, symBinAddr: 0x10001D3C0, symSize: 0x20 }
  - { offsetInCU: 0xFA74, offset: 0x5CBBB, size: 0x8, addend: 0x0, symName: __ZNSt3__19allocatorI6PlayerEC1B7v160006Ev, symObjAddr: 0x4140, symBinAddr: 0x10001D490, symSize: 0x20 }
  - { offsetInCU: 0xFADA, offset: 0x5CC21, size: 0x8, addend: 0x0, symName: __ZNSt3__118__allocation_guardINS_9allocatorINS_20__shared_ptr_emplaceI6PlayerNS1_IS3_EEEEEEEC1B7v160006IS4_EET_m, symObjAddr: 0x4160, symBinAddr: 0x10001D4B0, symSize: 0x30 }
  - { offsetInCU: 0xFB29, offset: 0x5CC70, size: 0x8, addend: 0x0, symName: __ZNKSt3__118__allocation_guardINS_9allocatorINS_20__shared_ptr_emplaceI6PlayerNS1_IS3_EEEEEEE5__getB7v160006Ev, symObjAddr: 0x4190, symBinAddr: 0x10001D4E0, symSize: 0x20 }
  - { offsetInCU: 0xFB4F, offset: 0x5CC96, size: 0x8, addend: 0x0, symName: __ZNSt3__120__shared_ptr_emplaceI6PlayerNS_9allocatorIS1_EEEC1B7v160006IJRiEEES3_DpOT_, symObjAddr: 0x41B0, symBinAddr: 0x10001D500, symSize: 0x30 }
  - { offsetInCU: 0xFBA2, offset: 0x5CCE9, size: 0x8, addend: 0x0, symName: __ZNSt3__118__allocation_guardINS_9allocatorINS_20__shared_ptr_emplaceI6PlayerNS1_IS3_EEEEEEE13__release_ptrB7v160006Ev, symObjAddr: 0x41E0, symBinAddr: 0x10001D530, symSize: 0x30 }
  - { offsetInCU: 0xFBD6, offset: 0x5CD1D, size: 0x8, addend: 0x0, symName: __ZNSt3__110shared_ptrI6PlayerE27__create_with_control_blockB7v160006IS1_NS_20__shared_ptr_emplaceIS1_NS_9allocatorIS1_EEEEEES2_PT_PT0_, symObjAddr: 0x4210, symBinAddr: 0x10001D560, symSize: 0x90 }
  - { offsetInCU: 0xFC2B, offset: 0x5CD72, size: 0x8, addend: 0x0, symName: __ZNSt3__120__shared_ptr_emplaceI6PlayerNS_9allocatorIS1_EEE10__get_elemB7v160006Ev, symObjAddr: 0x42A0, symBinAddr: 0x10001D5F0, symSize: 0x20 }
  - { offsetInCU: 0xFC51, offset: 0x5CD98, size: 0x8, addend: 0x0, symName: __ZNSt3__118__allocation_guardINS_9allocatorINS_20__shared_ptr_emplaceI6PlayerNS1_IS3_EEEEEEED1B7v160006Ev, symObjAddr: 0x42C0, symBinAddr: 0x10001D610, symSize: 0x20 }
  - { offsetInCU: 0xFC7B, offset: 0x5CDC2, size: 0x8, addend: 0x0, symName: __ZNSt3__118__allocation_guardINS_9allocatorINS_20__shared_ptr_emplaceI6PlayerNS1_IS3_EEEEEEEC2B7v160006IS4_EET_m, symObjAddr: 0x42E0, symBinAddr: 0x10001D630, symSize: 0x50 }
  - { offsetInCU: 0xFCCA, offset: 0x5CE11, size: 0x8, addend: 0x0, symName: __ZNSt3__19allocatorINS_20__shared_ptr_emplaceI6PlayerNS0_IS2_EEEEEC1B7v160006IS2_EERKNS0_IT_EE, symObjAddr: 0x4330, symBinAddr: 0x10001D680, symSize: 0x30 }
  - { offsetInCU: 0xFD08, offset: 0x5CE4F, size: 0x8, addend: 0x0, symName: __ZNSt3__116allocator_traitsINS_9allocatorINS_20__shared_ptr_emplaceI6PlayerNS1_IS3_EEEEEEE8allocateB7v160006ERS6_m, symObjAddr: 0x4360, symBinAddr: 0x10001D6B0, symSize: 0x30 }
  - { offsetInCU: 0xFD3B, offset: 0x5CE82, size: 0x8, addend: 0x0, symName: __ZNSt3__19allocatorINS_20__shared_ptr_emplaceI6PlayerNS0_IS2_EEEEEC2B7v160006IS2_EERKNS0_IT_EE, symObjAddr: 0x4390, symBinAddr: 0x10001D6E0, symSize: 0x20 }
  - { offsetInCU: 0xFD79, offset: 0x5CEC0, size: 0x8, addend: 0x0, symName: __ZNSt3__116__non_trivial_ifILb1ENS_9allocatorINS_20__shared_ptr_emplaceI6PlayerNS1_IS3_EEEEEEEC2B7v160006Ev, symObjAddr: 0x43B0, symBinAddr: 0x10001D700, symSize: 0x10 }
  - { offsetInCU: 0xFDA3, offset: 0x5CEEA, size: 0x8, addend: 0x0, symName: __ZNSt3__19allocatorINS_20__shared_ptr_emplaceI6PlayerNS0_IS2_EEEEE8allocateB7v160006Em, symObjAddr: 0x43C0, symBinAddr: 0x10001D710, symSize: 0x80 }
  - { offsetInCU: 0xFDE1, offset: 0x5CF28, size: 0x8, addend: 0x0, symName: __ZNSt3__116allocator_traitsINS_9allocatorINS_20__shared_ptr_emplaceI6PlayerNS1_IS3_EEEEEEE8max_sizeB7v160006IS6_vEEmRKS6_, symObjAddr: 0x4440, symBinAddr: 0x10001D790, symSize: 0x20 }
  - { offsetInCU: 0xFE0F, offset: 0x5CF56, size: 0x8, addend: 0x0, symName: __ZNKSt3__19allocatorINS_20__shared_ptr_emplaceI6PlayerNS0_IS2_EEEEE8max_sizeB7v160006Ev, symObjAddr: 0x44C0, symBinAddr: 0x10001D7B0, symSize: 0x20 }
  - { offsetInCU: 0xFE35, offset: 0x5CF7C, size: 0x8, addend: 0x0, symName: __ZNSt3__120__shared_ptr_emplaceI6PlayerNS_9allocatorIS1_EEEC2B7v160006IJRiEEES3_DpOT_, symObjAddr: 0x4500, symBinAddr: 0x10001D7D0, symSize: 0xC0 }
  - { offsetInCU: 0xFE88, offset: 0x5CFCF, size: 0x8, addend: 0x0, symName: __ZNSt3__120__shared_ptr_emplaceI6PlayerNS_9allocatorIS1_EEE8_StorageC1B7v160006EOS3_, symObjAddr: 0x4610, symBinAddr: 0x10001D890, symSize: 0x30 }
  - { offsetInCU: 0xFEC1, offset: 0x5D008, size: 0x8, addend: 0x0, symName: __ZN6PlayerC1Ei, symObjAddr: 0x4640, symBinAddr: 0x10001D8C0, symSize: 0x30 }
  - { offsetInCU: 0xFEF9, offset: 0x5D040, size: 0x8, addend: 0x0, symName: __ZNSt3__120__shared_ptr_emplaceI6PlayerNS_9allocatorIS1_EEE8_StorageD1B7v160006Ev, symObjAddr: 0x4670, symBinAddr: 0x10001D8F0, symSize: 0x20 }
  - { offsetInCU: 0xFF23, offset: 0x5D06A, size: 0x8, addend: 0x0, symName: __ZNSt3__120__shared_ptr_emplaceI6PlayerNS_9allocatorIS1_EEED1Ev, symObjAddr: 0x4690, symBinAddr: 0x10001D910, symSize: 0x20 }
  - { offsetInCU: 0xFF50, offset: 0x5D097, size: 0x8, addend: 0x0, symName: __ZNSt3__120__shared_ptr_emplaceI6PlayerNS_9allocatorIS1_EEED0Ev, symObjAddr: 0x46B0, symBinAddr: 0x10001D930, symSize: 0x50 }
  - { offsetInCU: 0xFF7D, offset: 0x5D0C4, size: 0x8, addend: 0x0, symName: __ZNSt3__120__shared_ptr_emplaceI6PlayerNS_9allocatorIS1_EEE16__on_zero_sharedEv, symObjAddr: 0x4700, symBinAddr: 0x10001D980, symSize: 0x40 }
  - { offsetInCU: 0xFFA3, offset: 0x5D0EA, size: 0x8, addend: 0x0, symName: __ZNSt3__120__shared_ptr_emplaceI6PlayerNS_9allocatorIS1_EEE21__on_zero_shared_weakEv, symObjAddr: 0x4740, symBinAddr: 0x10001D9C0, symSize: 0x70 }
  - { offsetInCU: 0xFFE4, offset: 0x5D12B, size: 0x8, addend: 0x0, symName: __ZNSt3__120__shared_ptr_emplaceI6PlayerNS_9allocatorIS1_EEE8_StorageC2B7v160006EOS3_, symObjAddr: 0x47E0, symBinAddr: 0x10001DA30, symSize: 0x20 }
  - { offsetInCU: 0x1001D, offset: 0x5D164, size: 0x8, addend: 0x0, symName: __ZNSt3__120__shared_ptr_emplaceI6PlayerNS_9allocatorIS1_EEE8_Storage11__get_allocEv, symObjAddr: 0x4800, symBinAddr: 0x10001DA50, symSize: 0x40 }
  - { offsetInCU: 0x10070, offset: 0x5D1B7, size: 0x8, addend: 0x0, symName: __ZNSt3__117__compressed_pairINS_9allocatorI6PlayerEES2_E16__get_first_baseB7v160006EPS4_, symObjAddr: 0x4840, symBinAddr: 0x10001DA90, symSize: 0x10 }
  - { offsetInCU: 0x10093, offset: 0x5D1DA, size: 0x8, addend: 0x0, symName: __ZN6PlayerC2Ei, symObjAddr: 0x4850, symBinAddr: 0x10001DAA0, symSize: 0x1D0 }
  - { offsetInCU: 0x101B1, offset: 0x5D2F8, size: 0x8, addend: 0x0, symName: __ZNSt3__16vectorINS0_INS_10shared_ptrI5SkillEENS_9allocatorIS3_EEEENS4_IS6_EEEixB7v160006Em, symObjAddr: 0x4A80, symBinAddr: 0x10001DC70, symSize: 0x20 }
  - { offsetInCU: 0x101E8, offset: 0x5D32F, size: 0x8, addend: 0x0, symName: __ZNSt3__16vectorINS_10shared_ptrI5SkillEENS_9allocatorIS3_EEEC1ERKS6_, symObjAddr: 0x4AA0, symBinAddr: 0x10001DC90, symSize: 0x30 }
  - { offsetInCU: 0x10264, offset: 0x5D3AB, size: 0x8, addend: 0x0, symName: __ZNSt3__16vectorINS_10shared_ptrI5SkillEENS_9allocatorIS3_EEEC2ERKS6_, symObjAddr: 0x6BF0, symBinAddr: 0x10001DCC0, symSize: 0x120 }
  - { offsetInCU: 0x102CE, offset: 0x5D415, size: 0x8, addend: 0x0, symName: __ZNSt3__116allocator_traitsINS_9allocatorINS_10shared_ptrI5SkillEEEEE37select_on_container_copy_constructionB7v160006IS5_vvEES5_RKS5_, symObjAddr: 0x6D10, symBinAddr: 0x10001DDE0, symSize: 0x10 }
  - { offsetInCU: 0x10302, offset: 0x5D449, size: 0x8, addend: 0x0, symName: __ZNSt3__117__compressed_pairIPNS_10shared_ptrI5SkillEENS_9allocatorIS3_EEEC1B7v160006IDnS6_EEOT_OT0_, symObjAddr: 0x6D40, symBinAddr: 0x10001DDF0, symSize: 0x30 }
  - { offsetInCU: 0x1035A, offset: 0x5D4A1, size: 0x8, addend: 0x0, symName: __ZNSt3__16vectorINS_10shared_ptrI5SkillEENS_9allocatorIS3_EEE11__vallocateB7v160006Em, symObjAddr: 0x6DF0, symBinAddr: 0x10001DE60, symSize: 0xA0 }
  - { offsetInCU: 0x1039E, offset: 0x5D4E5, size: 0x8, addend: 0x0, symName: __ZNSt3__16vectorINS_10shared_ptrI5SkillEENS_9allocatorIS3_EEE18__construct_at_endIPS3_Li0EEEvT_S9_m, symObjAddr: 0x6E90, symBinAddr: 0x10001DF00, symSize: 0xA0 }
  - { offsetInCU: 0x10411, offset: 0x5D558, size: 0x8, addend: 0x0, symName: __ZNSt3__128__exception_guard_exceptionsINS_6vectorINS_10shared_ptrI5SkillEENS_9allocatorIS4_EEE16__destroy_vectorEE10__completeB7v160006Ev, symObjAddr: 0x6F30, symBinAddr: 0x10001DFA0, symSize: 0x20 }
  - { offsetInCU: 0x10437, offset: 0x5D57E, size: 0x8, addend: 0x0, symName: __ZNSt3__128__exception_guard_exceptionsINS_6vectorINS_10shared_ptrI5SkillEENS_9allocatorIS4_EEE16__destroy_vectorEED1B7v160006Ev, symObjAddr: 0x6F50, symBinAddr: 0x10001DFC0, symSize: 0x20 }
  - { offsetInCU: 0x10461, offset: 0x5D5A8, size: 0x8, addend: 0x0, symName: __ZNSt3__117__compressed_pairIPNS_10shared_ptrI5SkillEENS_9allocatorIS3_EEEC2B7v160006IDnS6_EEOT_OT0_, symObjAddr: 0x6FA0, symBinAddr: 0x10001DFE0, symSize: 0x40 }
  - { offsetInCU: 0x104B9, offset: 0x5D600, size: 0x8, addend: 0x0, symName: __ZNSt3__122__compressed_pair_elemINS_9allocatorINS_10shared_ptrI5SkillEEEELi1ELb1EEC2B7v160006IS5_vEEOT_, symObjAddr: 0x7000, symBinAddr: 0x10001E020, symSize: 0x10 }
  - { offsetInCU: 0x104FB, offset: 0x5D642, size: 0x8, addend: 0x0, symName: __ZNSt3__128__exception_guard_exceptionsINS_6vectorINS_10shared_ptrI5SkillEENS_9allocatorIS4_EEE16__destroy_vectorEEC1B7v160006ES8_, symObjAddr: 0x7010, symBinAddr: 0x10001E030, symSize: 0x30 }
  - { offsetInCU: 0x10533, offset: 0x5D67A, size: 0x8, addend: 0x0, symName: __ZNSt3__128__exception_guard_exceptionsINS_6vectorINS_10shared_ptrI5SkillEENS_9allocatorIS4_EEE16__destroy_vectorEEC2B7v160006ES8_, symObjAddr: 0x7040, symBinAddr: 0x10001E060, symSize: 0x20 }
  - { offsetInCU: 0x10584, offset: 0x5D6CB, size: 0x8, addend: 0x0, symName: __ZNSt3__129_AllocatorDestroyRangeReverseINS_9allocatorINS_10shared_ptrI5SkillEEEEPS4_EC1B7v160006ERS5_RS6_S9_, symObjAddr: 0x7630, symBinAddr: 0x10001E1F0, symSize: 0x40 }
  - { offsetInCU: 0x105DB, offset: 0x5D722, size: 0x8, addend: 0x0, symName: __ZNSt3__116allocator_traitsINS_9allocatorINS_10shared_ptrI5SkillEEEEE9constructB7v160006IS4_JRS4_EvEEvRS5_PT_DpOT0_, symObjAddr: 0x7670, symBinAddr: 0x10001E230, symSize: 0x30 }
  - { offsetInCU: 0x10632, offset: 0x5D779, size: 0x8, addend: 0x0, symName: __ZNSt3__128__exception_guard_exceptionsINS_29_AllocatorDestroyRangeReverseINS_9allocatorINS_10shared_ptrI5SkillEEEEPS5_EEE10__completeB7v160006Ev, symObjAddr: 0x76A0, symBinAddr: 0x10001E260, symSize: 0x20 }
  - { offsetInCU: 0x10658, offset: 0x5D79F, size: 0x8, addend: 0x0, symName: __ZNSt3__128__exception_guard_exceptionsINS_29_AllocatorDestroyRangeReverseINS_9allocatorINS_10shared_ptrI5SkillEEEEPS5_EEED1B7v160006Ev, symObjAddr: 0x76C0, symBinAddr: 0x10001E280, symSize: 0x20 }
  - { offsetInCU: 0x10682, offset: 0x5D7C9, size: 0x8, addend: 0x0, symName: __ZNSt3__128__exception_guard_exceptionsINS_29_AllocatorDestroyRangeReverseINS_9allocatorINS_10shared_ptrI5SkillEEEEPS5_EEEC1B7v160006ES8_, symObjAddr: 0x76E0, symBinAddr: 0x10001E2A0, symSize: 0x40 }
  - { offsetInCU: 0x106BA, offset: 0x5D801, size: 0x8, addend: 0x0, symName: __ZNSt3__128__exception_guard_exceptionsINS_29_AllocatorDestroyRangeReverseINS_9allocatorINS_10shared_ptrI5SkillEEEEPS5_EEEC2B7v160006ES8_, symObjAddr: 0x7720, symBinAddr: 0x10001E2E0, symSize: 0x30 }
  - { offsetInCU: 0x106F2, offset: 0x5D839, size: 0x8, addend: 0x0, symName: __ZNSt3__129_AllocatorDestroyRangeReverseINS_9allocatorINS_10shared_ptrI5SkillEEEEPS4_EC2B7v160006ERS5_RS6_S9_, symObjAddr: 0x7750, symBinAddr: 0x10001E310, symSize: 0x40 }
  - { offsetInCU: 0x10749, offset: 0x5D890, size: 0x8, addend: 0x0, symName: __ZNSt3__19allocatorINS_10shared_ptrI5SkillEEE9constructB7v160006IS3_JRS3_EEEvPT_DpOT0_, symObjAddr: 0x7790, symBinAddr: 0x10001E350, symSize: 0x30 }
  - { offsetInCU: 0x1079F, offset: 0x5D8E6, size: 0x8, addend: 0x0, symName: __ZNSt3__128__exception_guard_exceptionsINS_29_AllocatorDestroyRangeReverseINS_9allocatorINS_10shared_ptrI5SkillEEEEPS5_EEED2B7v160006Ev, symObjAddr: 0x78B0, symBinAddr: 0x10001E380, symSize: 0x30 }
  - { offsetInCU: 0x107C9, offset: 0x5D910, size: 0x8, addend: 0x0, symName: __ZNKSt3__129_AllocatorDestroyRangeReverseINS_9allocatorINS_10shared_ptrI5SkillEEEEPS4_EclB7v160006Ev, symObjAddr: 0x78E0, symBinAddr: 0x10001E3B0, symSize: 0x60 }
  - { offsetInCU: 0x107EF, offset: 0x5D936, size: 0x8, addend: 0x0, symName: __ZNSt3__128__exception_guard_exceptionsINS_6vectorINS_10shared_ptrI5SkillEENS_9allocatorIS4_EEE16__destroy_vectorEED2B7v160006Ev, symObjAddr: 0x7CE0, symBinAddr: 0x10001E480, symSize: 0x30 }
  - { offsetInCU: 0x10819, offset: 0x5D960, size: 0x8, addend: 0x0, symName: __ZNSt3__120__shared_ptr_emplaceI6PlayerNS_9allocatorIS1_EEE8_StorageD2B7v160006Ev, symObjAddr: 0x8010, symBinAddr: 0x10001E4B0, symSize: 0x20 }
  - { offsetInCU: 0x10843, offset: 0x5D98A, size: 0x8, addend: 0x0, symName: __ZNSt3__120__shared_ptr_emplaceI6PlayerNS_9allocatorIS1_EEED2Ev, symObjAddr: 0x8030, symBinAddr: 0x10001E4D0, symSize: 0x70 }
  - { offsetInCU: 0x10870, offset: 0x5D9B7, size: 0x8, addend: 0x0, symName: __ZN6PlayerD1Ev, symObjAddr: 0x80A0, symBinAddr: 0x10001E540, symSize: 0x20 }
  - { offsetInCU: 0x1089A, offset: 0x5D9E1, size: 0x8, addend: 0x0, symName: __ZN6PlayerD2Ev, symObjAddr: 0x80C0, symBinAddr: 0x10001E560, symSize: 0x20 }
  - { offsetInCU: 0x108C4, offset: 0x5DA0B, size: 0x8, addend: 0x0, symName: __ZN7PokemonD2Ev, symObjAddr: 0x80E0, symBinAddr: 0x10001E580, symSize: 0x1E0 }
  - { offsetInCU: 0x108EE, offset: 0x5DA35, size: 0x8, addend: 0x0, symName: __ZNSt3__120__shared_ptr_emplaceI6PlayerNS_9allocatorIS1_EEE11__get_allocB7v160006Ev, symObjAddr: 0x87E0, symBinAddr: 0x10001E760, symSize: 0x20 }
  - { offsetInCU: 0x10914, offset: 0x5DA5B, size: 0x8, addend: 0x0, symName: __ZNSt3__116allocator_traitsINS_9allocatorINS_20__shared_ptr_emplaceI6PlayerNS1_IS3_EEEEEEE10deallocateB7v160006ERS6_PS5_m, symObjAddr: 0x8800, symBinAddr: 0x10001E780, symSize: 0x30 }
  - { offsetInCU: 0x10956, offset: 0x5DA9D, size: 0x8, addend: 0x0, symName: __ZNSt3__114pointer_traitsIPNS_20__shared_ptr_emplaceI6PlayerNS_9allocatorIS2_EEEEE10pointer_toB7v160006ERS5_, symObjAddr: 0x8830, symBinAddr: 0x10001E7B0, symSize: 0x10 }
  - { offsetInCU: 0x10979, offset: 0x5DAC0, size: 0x8, addend: 0x0, symName: __ZNSt3__19allocatorINS_20__shared_ptr_emplaceI6PlayerNS0_IS2_EEEEE10deallocateB7v160006EPS4_m, symObjAddr: 0x8840, symBinAddr: 0x10001E7C0, symSize: 0x80 }
  - { offsetInCU: 0x109BB, offset: 0x5DB02, size: 0x8, addend: 0x0, symName: __ZNSt3__110shared_ptrI6PlayerE18__enable_weak_thisB7v160006Ez, symObjAddr: 0x88E0, symBinAddr: 0x10001E840, symSize: 0x10 }
  - { offsetInCU: 0x109E2, offset: 0x5DB29, size: 0x8, addend: 0x0, symName: __ZNSt3__120__shared_ptr_emplaceI6PlayerNS_9allocatorIS1_EEE8_Storage10__get_elemEv, symObjAddr: 0x8910, symBinAddr: 0x10001E850, symSize: 0x40 }
  - { offsetInCU: 0x10A35, offset: 0x5DB7C, size: 0x8, addend: 0x0, symName: __ZNSt3__117__compressed_pairINS_9allocatorI6PlayerEES2_E17__get_second_baseB7v160006EPS4_, symObjAddr: 0x8950, symBinAddr: 0x10001E890, symSize: 0x10 }
  - { offsetInCU: 0x10A58, offset: 0x5DB9F, size: 0x8, addend: 0x0, symName: __ZNSt3__118__allocation_guardINS_9allocatorINS_20__shared_ptr_emplaceI6PlayerNS1_IS3_EEEEEEED2B7v160006Ev, symObjAddr: 0x8960, symBinAddr: 0x10001E8A0, symSize: 0x40 }
  - { offsetInCU: 0x10A82, offset: 0x5DBC9, size: 0x8, addend: 0x0, symName: __ZNSt3__19allocatorI6PlayerEC2B7v160006Ev, symObjAddr: 0x89A0, symBinAddr: 0x10001E8E0, symSize: 0x20 }
  - { offsetInCU: 0x10AAC, offset: 0x5DBF3, size: 0x8, addend: 0x0, symName: __ZNSt3__116__non_trivial_ifILb1ENS_9allocatorI6PlayerEEEC2B7v160006Ev, symObjAddr: 0x89C0, symBinAddr: 0x10001E900, symSize: 0x10 }
  - { offsetInCU: 0x10AD6, offset: 0x5DC1D, size: 0x8, addend: 0x0, symName: __ZNSt3__16vectorINS_10shared_ptrI5EnemyEENS_9allocatorIS3_EEEC2B7v160006Ev, symObjAddr: 0x8A10, symBinAddr: 0x10001E910, symSize: 0x50 }
  - { offsetInCU: 0x10B00, offset: 0x5DC47, size: 0x8, addend: 0x0, symName: __ZNSt3__117__compressed_pairIPNS_10shared_ptrI5EnemyEENS_9allocatorIS3_EEEC1B7v160006IDnNS_18__default_init_tagEEEOT_OT0_, symObjAddr: 0x8A60, symBinAddr: 0x10001E960, symSize: 0x30 }
  - { offsetInCU: 0x10B58, offset: 0x5DC9F, size: 0x8, addend: 0x0, symName: __ZNSt3__117__compressed_pairIPNS_10shared_ptrI5EnemyEENS_9allocatorIS3_EEEC2B7v160006IDnNS_18__default_init_tagEEEOT_OT0_, symObjAddr: 0x8AA0, symBinAddr: 0x10001E9A0, symSize: 0x40 }
  - { offsetInCU: 0x10BB0, offset: 0x5DCF7, size: 0x8, addend: 0x0, symName: __ZNSt3__122__compressed_pair_elemIPNS_10shared_ptrI5EnemyEELi0ELb0EEC2B7v160006IDnvEEOT_, symObjAddr: 0x8AE0, symBinAddr: 0x10001E9E0, symSize: 0x20 }
  - { offsetInCU: 0x10BF2, offset: 0x5DD39, size: 0x8, addend: 0x0, symName: __ZNSt3__122__compressed_pair_elemINS_9allocatorINS_10shared_ptrI5EnemyEEEELi1ELb1EEC2B7v160006ENS_18__default_init_tagE, symObjAddr: 0x8B00, symBinAddr: 0x10001EA00, symSize: 0x20 }
  - { offsetInCU: 0x10C27, offset: 0x5DD6E, size: 0x8, addend: 0x0, symName: __ZNSt3__19allocatorINS_10shared_ptrI5EnemyEEEC2B7v160006Ev, symObjAddr: 0x8B20, symBinAddr: 0x10001EA20, symSize: 0x20 }
  - { offsetInCU: 0x10C51, offset: 0x5DD98, size: 0x8, addend: 0x0, symName: __ZNSt3__116__non_trivial_ifILb1ENS_9allocatorINS_10shared_ptrI5EnemyEEEEEC2B7v160006Ev, symObjAddr: 0x8B40, symBinAddr: 0x10001EA40, symSize: 0x10 }
  - { offsetInCU: 0x10C7B, offset: 0x5DDC2, size: 0x8, addend: 0x0, symName: __ZNSt3__16vectorINS_10shared_ptrI5EnemyEENS_9allocatorIS3_EEED2B7v160006Ev, symObjAddr: 0x8B50, symBinAddr: 0x10001EA50, symSize: 0x30 }
  - { offsetInCU: 0x10CA5, offset: 0x5DDEC, size: 0x8, addend: 0x0, symName: __ZNSt3__16vectorINS_10shared_ptrI5EnemyEENS_9allocatorIS3_EEE16__destroy_vectorC1ERS6_, symObjAddr: 0x8B80, symBinAddr: 0x10001EA80, symSize: 0x30 }
  - { offsetInCU: 0x10CDE, offset: 0x5DE25, size: 0x8, addend: 0x0, symName: __ZNSt3__16vectorINS_10shared_ptrI5EnemyEENS_9allocatorIS3_EEE16__destroy_vectorclB7v160006Ev, symObjAddr: 0x8BB0, symBinAddr: 0x10001EAB0, symSize: 0x90 }
  - { offsetInCU: 0x10D04, offset: 0x5DE4B, size: 0x8, addend: 0x0, symName: __ZNSt3__16vectorINS_10shared_ptrI5EnemyEENS_9allocatorIS3_EEE16__destroy_vectorC2ERS6_, symObjAddr: 0x8C40, symBinAddr: 0x10001EB40, symSize: 0x20 }
  - { offsetInCU: 0x10D3D, offset: 0x5DE84, size: 0x8, addend: 0x0, symName: __ZNKSt3__16vectorINS_10shared_ptrI5EnemyEENS_9allocatorIS3_EEE17__annotate_deleteB7v160006Ev, symObjAddr: 0x8C60, symBinAddr: 0x10001EB60, symSize: 0xB0 }
  - { offsetInCU: 0x10D63, offset: 0x5DEAA, size: 0x8, addend: 0x0, symName: __ZNSt3__16vectorINS_10shared_ptrI5EnemyEENS_9allocatorIS3_EEE7__clearB7v160006Ev, symObjAddr: 0x8D20, symBinAddr: 0x10001EC20, symSize: 0x20 }
  - { offsetInCU: 0x10D89, offset: 0x5DED0, size: 0x8, addend: 0x0, symName: __ZNSt3__116allocator_traitsINS_9allocatorINS_10shared_ptrI5EnemyEEEEE10deallocateB7v160006ERS5_PS4_m, symObjAddr: 0x8D40, symBinAddr: 0x10001EC40, symSize: 0x30 }
  - { offsetInCU: 0x10DCB, offset: 0x5DF12, size: 0x8, addend: 0x0, symName: __ZNSt3__16vectorINS_10shared_ptrI5EnemyEENS_9allocatorIS3_EEE7__allocB7v160006Ev, symObjAddr: 0x8D70, symBinAddr: 0x10001EC70, symSize: 0x20 }
  - { offsetInCU: 0x10DF1, offset: 0x5DF38, size: 0x8, addend: 0x0, symName: __ZNKSt3__16vectorINS_10shared_ptrI5EnemyEENS_9allocatorIS3_EEE8capacityB7v160006Ev, symObjAddr: 0x8D90, symBinAddr: 0x10001EC90, symSize: 0x30 }
  - { offsetInCU: 0x10E17, offset: 0x5DF5E, size: 0x8, addend: 0x0, symName: __ZNKSt3__16vectorINS_10shared_ptrI5EnemyEENS_9allocatorIS3_EEE31__annotate_contiguous_containerB7v160006EPKvS8_S8_S8_, symObjAddr: 0x8DC0, symBinAddr: 0x10001ECC0, symSize: 0x20 }
  - { offsetInCU: 0x10E69, offset: 0x5DFB0, size: 0x8, addend: 0x0, symName: __ZNKSt3__16vectorINS_10shared_ptrI5EnemyEENS_9allocatorIS3_EEE4dataB7v160006Ev, symObjAddr: 0x8DE0, symBinAddr: 0x10001ECE0, symSize: 0x20 }
  - { offsetInCU: 0x10E8F, offset: 0x5DFD6, size: 0x8, addend: 0x0, symName: __ZNKSt3__16vectorINS_10shared_ptrI5EnemyEENS_9allocatorIS3_EEE4sizeB7v160006Ev, symObjAddr: 0x8E00, symBinAddr: 0x10001ED00, symSize: 0x20 }
  - { offsetInCU: 0x10EB5, offset: 0x5DFFC, size: 0x8, addend: 0x0, symName: __ZNSt3__16vectorINS_10shared_ptrI5EnemyEENS_9allocatorIS3_EEE22__base_destruct_at_endB7v160006EPS3_, symObjAddr: 0x8E30, symBinAddr: 0x10001ED30, symSize: 0x90 }
  - { offsetInCU: 0x10EF9, offset: 0x5E040, size: 0x8, addend: 0x0, symName: __ZNSt3__116allocator_traitsINS_9allocatorINS_10shared_ptrI5EnemyEEEEE7destroyB7v160006IS4_vEEvRS5_PT_, symObjAddr: 0x8EC0, symBinAddr: 0x10001EDC0, symSize: 0x30 }
  - { offsetInCU: 0x10F36, offset: 0x5E07D, size: 0x8, addend: 0x0, symName: __ZNSt3__19allocatorINS_10shared_ptrI5EnemyEEE7destroyB7v160006EPS3_, symObjAddr: 0x8EF0, symBinAddr: 0x10001EDF0, symSize: 0x20 }
  - { offsetInCU: 0x10F6A, offset: 0x5E0B1, size: 0x8, addend: 0x0, symName: __ZNSt3__19allocatorINS_10shared_ptrI5EnemyEEE10deallocateB7v160006EPS3_m, symObjAddr: 0x8F10, symBinAddr: 0x10001EE10, symSize: 0x70 }
  - { offsetInCU: 0x10FAC, offset: 0x5E0F3, size: 0x8, addend: 0x0, symName: __ZNSt3__117__compressed_pairIPNS_10shared_ptrI5EnemyEENS_9allocatorIS3_EEE6secondB7v160006Ev, symObjAddr: 0x8F80, symBinAddr: 0x10001EE80, symSize: 0x20 }
  - { offsetInCU: 0x10FD2, offset: 0x5E119, size: 0x8, addend: 0x0, symName: __ZNSt3__122__compressed_pair_elemINS_9allocatorINS_10shared_ptrI5EnemyEEEELi1ELb1EE5__getB7v160006Ev, symObjAddr: 0x8FA0, symBinAddr: 0x10001EEA0, symSize: 0x10 }
  - { offsetInCU: 0x10FF8, offset: 0x5E13F, size: 0x8, addend: 0x0, symName: __ZNKSt3__16vectorINS_10shared_ptrI5EnemyEENS_9allocatorIS3_EEE9__end_capB7v160006Ev, symObjAddr: 0x8FB0, symBinAddr: 0x10001EEB0, symSize: 0x20 }
  - { offsetInCU: 0x1101E, offset: 0x5E165, size: 0x8, addend: 0x0, symName: __ZNKSt3__117__compressed_pairIPNS_10shared_ptrI5EnemyEENS_9allocatorIS3_EEE5firstB7v160006Ev, symObjAddr: 0x8FD0, symBinAddr: 0x10001EED0, symSize: 0x20 }
  - { offsetInCU: 0x11044, offset: 0x5E18B, size: 0x8, addend: 0x0, symName: __ZNKSt3__122__compressed_pair_elemIPNS_10shared_ptrI5EnemyEELi0ELb0EE5__getB7v160006Ev, symObjAddr: 0x8FF0, symBinAddr: 0x10001EEF0, symSize: 0x10 }
  - { offsetInCU: 0x1106A, offset: 0x5E1B1, size: 0x8, addend: 0x0, symName: __ZNSt3__19allocatorI5EnemyEC1B7v160006Ev, symObjAddr: 0x90B0, symBinAddr: 0x10001EFB0, symSize: 0x20 }
  - { offsetInCU: 0x110D0, offset: 0x5E217, size: 0x8, addend: 0x0, symName: __ZNSt3__118__allocation_guardINS_9allocatorINS_20__shared_ptr_emplaceI5EnemyNS1_IS3_EEEEEEEC1B7v160006IS4_EET_m, symObjAddr: 0x90D0, symBinAddr: 0x10001EFD0, symSize: 0x30 }
  - { offsetInCU: 0x1111F, offset: 0x5E266, size: 0x8, addend: 0x0, symName: __ZNKSt3__118__allocation_guardINS_9allocatorINS_20__shared_ptr_emplaceI5EnemyNS1_IS3_EEEEEEE5__getB7v160006Ev, symObjAddr: 0x9100, symBinAddr: 0x10001F000, symSize: 0x20 }
  - { offsetInCU: 0x11145, offset: 0x5E28C, size: 0x8, addend: 0x0, symName: __ZNSt3__120__shared_ptr_emplaceI5EnemyNS_9allocatorIS1_EEEC1B7v160006IJRiEEES3_DpOT_, symObjAddr: 0x9120, symBinAddr: 0x10001F020, symSize: 0x30 }
  - { offsetInCU: 0x11198, offset: 0x5E2DF, size: 0x8, addend: 0x0, symName: __ZNSt3__118__allocation_guardINS_9allocatorINS_20__shared_ptr_emplaceI5EnemyNS1_IS3_EEEEEEE13__release_ptrB7v160006Ev, symObjAddr: 0x9150, symBinAddr: 0x10001F050, symSize: 0x30 }
  - { offsetInCU: 0x111CC, offset: 0x5E313, size: 0x8, addend: 0x0, symName: __ZNSt3__110shared_ptrI5EnemyE27__create_with_control_blockB7v160006IS1_NS_20__shared_ptr_emplaceIS1_NS_9allocatorIS1_EEEEEES2_PT_PT0_, symObjAddr: 0x9180, symBinAddr: 0x10001F080, symSize: 0x90 }
  - { offsetInCU: 0x11221, offset: 0x5E368, size: 0x8, addend: 0x0, symName: __ZNSt3__120__shared_ptr_emplaceI5EnemyNS_9allocatorIS1_EEE10__get_elemB7v160006Ev, symObjAddr: 0x9210, symBinAddr: 0x10001F110, symSize: 0x20 }
  - { offsetInCU: 0x11247, offset: 0x5E38E, size: 0x8, addend: 0x0, symName: __ZNSt3__118__allocation_guardINS_9allocatorINS_20__shared_ptr_emplaceI5EnemyNS1_IS3_EEEEEEED1B7v160006Ev, symObjAddr: 0x9230, symBinAddr: 0x10001F130, symSize: 0x20 }
  - { offsetInCU: 0x11271, offset: 0x5E3B8, size: 0x8, addend: 0x0, symName: __ZNSt3__118__allocation_guardINS_9allocatorINS_20__shared_ptr_emplaceI5EnemyNS1_IS3_EEEEEEEC2B7v160006IS4_EET_m, symObjAddr: 0x9250, symBinAddr: 0x10001F150, symSize: 0x50 }
  - { offsetInCU: 0x112C0, offset: 0x5E407, size: 0x8, addend: 0x0, symName: __ZNSt3__19allocatorINS_20__shared_ptr_emplaceI5EnemyNS0_IS2_EEEEEC1B7v160006IS2_EERKNS0_IT_EE, symObjAddr: 0x92A0, symBinAddr: 0x10001F1A0, symSize: 0x30 }
  - { offsetInCU: 0x112FE, offset: 0x5E445, size: 0x8, addend: 0x0, symName: __ZNSt3__116allocator_traitsINS_9allocatorINS_20__shared_ptr_emplaceI5EnemyNS1_IS3_EEEEEEE8allocateB7v160006ERS6_m, symObjAddr: 0x92D0, symBinAddr: 0x10001F1D0, symSize: 0x30 }
  - { offsetInCU: 0x11331, offset: 0x5E478, size: 0x8, addend: 0x0, symName: __ZNSt3__19allocatorINS_20__shared_ptr_emplaceI5EnemyNS0_IS2_EEEEEC2B7v160006IS2_EERKNS0_IT_EE, symObjAddr: 0x9300, symBinAddr: 0x10001F200, symSize: 0x20 }
  - { offsetInCU: 0x1136F, offset: 0x5E4B6, size: 0x8, addend: 0x0, symName: __ZNSt3__116__non_trivial_ifILb1ENS_9allocatorINS_20__shared_ptr_emplaceI5EnemyNS1_IS3_EEEEEEEC2B7v160006Ev, symObjAddr: 0x9320, symBinAddr: 0x10001F220, symSize: 0x10 }
  - { offsetInCU: 0x11399, offset: 0x5E4E0, size: 0x8, addend: 0x0, symName: __ZNSt3__19allocatorINS_20__shared_ptr_emplaceI5EnemyNS0_IS2_EEEEE8allocateB7v160006Em, symObjAddr: 0x9330, symBinAddr: 0x10001F230, symSize: 0x80 }
  - { offsetInCU: 0x113D7, offset: 0x5E51E, size: 0x8, addend: 0x0, symName: __ZNSt3__116allocator_traitsINS_9allocatorINS_20__shared_ptr_emplaceI5EnemyNS1_IS3_EEEEEEE8max_sizeB7v160006IS6_vEEmRKS6_, symObjAddr: 0x93B0, symBinAddr: 0x10001F2B0, symSize: 0x20 }
  - { offsetInCU: 0x11405, offset: 0x5E54C, size: 0x8, addend: 0x0, symName: __ZNKSt3__19allocatorINS_20__shared_ptr_emplaceI5EnemyNS0_IS2_EEEEE8max_sizeB7v160006Ev, symObjAddr: 0x93D0, symBinAddr: 0x10001F2D0, symSize: 0x20 }
  - { offsetInCU: 0x1142B, offset: 0x5E572, size: 0x8, addend: 0x0, symName: __ZNSt3__120__shared_ptr_emplaceI5EnemyNS_9allocatorIS1_EEEC2B7v160006IJRiEEES3_DpOT_, symObjAddr: 0x93F0, symBinAddr: 0x10001F2F0, symSize: 0xC0 }
  - { offsetInCU: 0x1147E, offset: 0x5E5C5, size: 0x8, addend: 0x0, symName: __ZNSt3__120__shared_ptr_emplaceI5EnemyNS_9allocatorIS1_EEE8_StorageC1B7v160006EOS3_, symObjAddr: 0x94B0, symBinAddr: 0x10001F3B0, symSize: 0x30 }
  - { offsetInCU: 0x114B7, offset: 0x5E5FE, size: 0x8, addend: 0x0, symName: __ZN5EnemyC1Ei, symObjAddr: 0x94E0, symBinAddr: 0x10001F3E0, symSize: 0x30 }
  - { offsetInCU: 0x114EF, offset: 0x5E636, size: 0x8, addend: 0x0, symName: __ZNSt3__120__shared_ptr_emplaceI5EnemyNS_9allocatorIS1_EEE8_StorageD1B7v160006Ev, symObjAddr: 0x9510, symBinAddr: 0x10001F410, symSize: 0x20 }
  - { offsetInCU: 0x11519, offset: 0x5E660, size: 0x8, addend: 0x0, symName: __ZNSt3__120__shared_ptr_emplaceI5EnemyNS_9allocatorIS1_EEED1Ev, symObjAddr: 0x9530, symBinAddr: 0x10001F430, symSize: 0x20 }
  - { offsetInCU: 0x11546, offset: 0x5E68D, size: 0x8, addend: 0x0, symName: __ZNSt3__120__shared_ptr_emplaceI5EnemyNS_9allocatorIS1_EEED0Ev, symObjAddr: 0x9550, symBinAddr: 0x10001F450, symSize: 0x50 }
  - { offsetInCU: 0x11573, offset: 0x5E6BA, size: 0x8, addend: 0x0, symName: __ZNSt3__120__shared_ptr_emplaceI5EnemyNS_9allocatorIS1_EEE16__on_zero_sharedEv, symObjAddr: 0x95A0, symBinAddr: 0x10001F4A0, symSize: 0x40 }
  - { offsetInCU: 0x11599, offset: 0x5E6E0, size: 0x8, addend: 0x0, symName: __ZNSt3__120__shared_ptr_emplaceI5EnemyNS_9allocatorIS1_EEE21__on_zero_shared_weakEv, symObjAddr: 0x95E0, symBinAddr: 0x10001F4E0, symSize: 0x70 }
  - { offsetInCU: 0x115DA, offset: 0x5E721, size: 0x8, addend: 0x0, symName: __ZNSt3__120__shared_ptr_emplaceI5EnemyNS_9allocatorIS1_EEE8_StorageC2B7v160006EOS3_, symObjAddr: 0x9650, symBinAddr: 0x10001F550, symSize: 0x20 }
  - { offsetInCU: 0x11613, offset: 0x5E75A, size: 0x8, addend: 0x0, symName: __ZNSt3__120__shared_ptr_emplaceI5EnemyNS_9allocatorIS1_EEE8_Storage11__get_allocEv, symObjAddr: 0x9670, symBinAddr: 0x10001F570, symSize: 0x40 }
  - { offsetInCU: 0x11666, offset: 0x5E7AD, size: 0x8, addend: 0x0, symName: __ZNSt3__117__compressed_pairINS_9allocatorI5EnemyEES2_E16__get_first_baseB7v160006EPS4_, symObjAddr: 0x96B0, symBinAddr: 0x10001F5B0, symSize: 0x10 }
  - { offsetInCU: 0x11689, offset: 0x5E7D0, size: 0x8, addend: 0x0, symName: __ZN5EnemyC2Ei, symObjAddr: 0x96C0, symBinAddr: 0x10001F5C0, symSize: 0x1D0 }
  - { offsetInCU: 0x116C1, offset: 0x5E808, size: 0x8, addend: 0x0, symName: __ZNSt3__120__shared_ptr_emplaceI5EnemyNS_9allocatorIS1_EEE8_StorageD2B7v160006Ev, symObjAddr: 0x9890, symBinAddr: 0x10001F790, symSize: 0x20 }
  - { offsetInCU: 0x116EB, offset: 0x5E832, size: 0x8, addend: 0x0, symName: __ZNSt3__120__shared_ptr_emplaceI5EnemyNS_9allocatorIS1_EEED2Ev, symObjAddr: 0x98B0, symBinAddr: 0x10001F7B0, symSize: 0x70 }
  - { offsetInCU: 0x11718, offset: 0x5E85F, size: 0x8, addend: 0x0, symName: __ZN5EnemyD1Ev, symObjAddr: 0x9920, symBinAddr: 0x10001F820, symSize: 0x20 }
  - { offsetInCU: 0x11742, offset: 0x5E889, size: 0x8, addend: 0x0, symName: __ZN5EnemyD2Ev, symObjAddr: 0x9940, symBinAddr: 0x10001F840, symSize: 0x20 }
  - { offsetInCU: 0x1176C, offset: 0x5E8B3, size: 0x8, addend: 0x0, symName: __ZNSt3__120__shared_ptr_emplaceI5EnemyNS_9allocatorIS1_EEE11__get_allocB7v160006Ev, symObjAddr: 0x9960, symBinAddr: 0x10001F860, symSize: 0x20 }
  - { offsetInCU: 0x11792, offset: 0x5E8D9, size: 0x8, addend: 0x0, symName: __ZNSt3__116allocator_traitsINS_9allocatorINS_20__shared_ptr_emplaceI5EnemyNS1_IS3_EEEEEEE10deallocateB7v160006ERS6_PS5_m, symObjAddr: 0x9980, symBinAddr: 0x10001F880, symSize: 0x30 }
  - { offsetInCU: 0x117D4, offset: 0x5E91B, size: 0x8, addend: 0x0, symName: __ZNSt3__114pointer_traitsIPNS_20__shared_ptr_emplaceI5EnemyNS_9allocatorIS2_EEEEE10pointer_toB7v160006ERS5_, symObjAddr: 0x99B0, symBinAddr: 0x10001F8B0, symSize: 0x10 }
  - { offsetInCU: 0x117F7, offset: 0x5E93E, size: 0x8, addend: 0x0, symName: __ZNSt3__19allocatorINS_20__shared_ptr_emplaceI5EnemyNS0_IS2_EEEEE10deallocateB7v160006EPS4_m, symObjAddr: 0x99C0, symBinAddr: 0x10001F8C0, symSize: 0x80 }
  - { offsetInCU: 0x11839, offset: 0x5E980, size: 0x8, addend: 0x0, symName: __ZNSt3__110shared_ptrI5EnemyE18__enable_weak_thisB7v160006Ez, symObjAddr: 0x9A60, symBinAddr: 0x10001F940, symSize: 0x10 }
  - { offsetInCU: 0x11860, offset: 0x5E9A7, size: 0x8, addend: 0x0, symName: __ZNSt3__120__shared_ptr_emplaceI5EnemyNS_9allocatorIS1_EEE8_Storage10__get_elemEv, symObjAddr: 0x9A90, symBinAddr: 0x10001F950, symSize: 0x40 }
  - { offsetInCU: 0x118B3, offset: 0x5E9FA, size: 0x8, addend: 0x0, symName: __ZNSt3__117__compressed_pairINS_9allocatorI5EnemyEES2_E17__get_second_baseB7v160006EPS4_, symObjAddr: 0x9AD0, symBinAddr: 0x10001F990, symSize: 0x10 }
  - { offsetInCU: 0x118D6, offset: 0x5EA1D, size: 0x8, addend: 0x0, symName: __ZNSt3__118__allocation_guardINS_9allocatorINS_20__shared_ptr_emplaceI5EnemyNS1_IS3_EEEEEEED2B7v160006Ev, symObjAddr: 0x9AE0, symBinAddr: 0x10001F9A0, symSize: 0x40 }
  - { offsetInCU: 0x11900, offset: 0x5EA47, size: 0x8, addend: 0x0, symName: __ZNSt3__19allocatorI5EnemyEC2B7v160006Ev, symObjAddr: 0x9B20, symBinAddr: 0x10001F9E0, symSize: 0x20 }
  - { offsetInCU: 0x1192A, offset: 0x5EA71, size: 0x8, addend: 0x0, symName: __ZNSt3__116__non_trivial_ifILb1ENS_9allocatorI5EnemyEEEC2B7v160006Ev, symObjAddr: 0x9B40, symBinAddr: 0x10001FA00, symSize: 0x10 }
  - { offsetInCU: 0x11954, offset: 0x5EA9B, size: 0x8, addend: 0x0, symName: __ZNSt3__16vectorINS_10shared_ptrI5EnemyEENS_9allocatorIS3_EEE9__end_capB7v160006Ev, symObjAddr: 0x9B90, symBinAddr: 0x10001FA10, symSize: 0x20 }
  - { offsetInCU: 0x1197A, offset: 0x5EAC1, size: 0x8, addend: 0x0, symName: __ZNSt3__16vectorINS_10shared_ptrI5EnemyEENS_9allocatorIS3_EEE22__construct_one_at_endB7v160006IJRKS3_EEEvDpOT_, symObjAddr: 0x9BB0, symBinAddr: 0x10001FA30, symSize: 0xA0 }
  - { offsetInCU: 0x119C9, offset: 0x5EB10, size: 0x8, addend: 0x0, symName: __ZNSt3__16vectorINS_10shared_ptrI5EnemyEENS_9allocatorIS3_EEE21__push_back_slow_pathIRKS3_EEvOT_, symObjAddr: 0x9C50, symBinAddr: 0x10001FAD0, symSize: 0xE0 }
  - { offsetInCU: 0x11A27, offset: 0x5EB6E, size: 0x8, addend: 0x0, symName: __ZNSt3__117__compressed_pairIPNS_10shared_ptrI5EnemyEENS_9allocatorIS3_EEE5firstB7v160006Ev, symObjAddr: 0x9D30, symBinAddr: 0x10001FBB0, symSize: 0x20 }
  - { offsetInCU: 0x11A4D, offset: 0x5EB94, size: 0x8, addend: 0x0, symName: __ZNSt3__122__compressed_pair_elemIPNS_10shared_ptrI5EnemyEELi0ELb0EE5__getB7v160006Ev, symObjAddr: 0x9D50, symBinAddr: 0x10001FBD0, symSize: 0x10 }
  - { offsetInCU: 0x11A8C, offset: 0x5EBD3, size: 0x8, addend: 0x0, symName: __ZNSt3__16vectorINS_10shared_ptrI5EnemyEENS_9allocatorIS3_EEE21_ConstructTransactionC1B7v160006ERS6_m, symObjAddr: 0x9D60, symBinAddr: 0x10001FBE0, symSize: 0x30 }
  - { offsetInCU: 0x11AD4, offset: 0x5EC1B, size: 0x8, addend: 0x0, symName: __ZNSt3__116allocator_traitsINS_9allocatorINS_10shared_ptrI5EnemyEEEEE9constructB7v160006IS4_JRKS4_EvEEvRS5_PT_DpOT0_, symObjAddr: 0x9D90, symBinAddr: 0x10001FC10, symSize: 0x30 }
  - { offsetInCU: 0x11B2B, offset: 0x5EC72, size: 0x8, addend: 0x0, symName: __ZNSt3__16vectorINS_10shared_ptrI5EnemyEENS_9allocatorIS3_EEE21_ConstructTransactionD1B7v160006Ev, symObjAddr: 0x9DC0, symBinAddr: 0x10001FC40, symSize: 0x20 }
  - { offsetInCU: 0x11B55, offset: 0x5EC9C, size: 0x8, addend: 0x0, symName: __ZNSt3__16vectorINS_10shared_ptrI5EnemyEENS_9allocatorIS3_EEE21_ConstructTransactionC2B7v160006ERS6_m, symObjAddr: 0x9DE0, symBinAddr: 0x10001FC60, symSize: 0x40 }
  - { offsetInCU: 0x11B9D, offset: 0x5ECE4, size: 0x8, addend: 0x0, symName: __ZNSt3__19allocatorINS_10shared_ptrI5EnemyEEE9constructB7v160006IS3_JRKS3_EEEvPT_DpOT0_, symObjAddr: 0x9E20, symBinAddr: 0x10001FCA0, symSize: 0x30 }
  - { offsetInCU: 0x11BF3, offset: 0x5ED3A, size: 0x8, addend: 0x0, symName: __ZNSt3__16vectorINS_10shared_ptrI5EnemyEENS_9allocatorIS3_EEE21_ConstructTransactionD2B7v160006Ev, symObjAddr: 0x9E50, symBinAddr: 0x10001FCD0, symSize: 0x20 }
  - { offsetInCU: 0x11C1D, offset: 0x5ED64, size: 0x8, addend: 0x0, symName: __ZNKSt3__16vectorINS_10shared_ptrI5EnemyEENS_9allocatorIS3_EEE11__recommendB7v160006Em, symObjAddr: 0x9E70, symBinAddr: 0x10001FCF0, symSize: 0xA0 }
  - { offsetInCU: 0x11C72, offset: 0x5EDB9, size: 0x8, addend: 0x0, symName: __ZNSt3__114__split_bufferINS_10shared_ptrI5EnemyEERNS_9allocatorIS3_EEEC1EmmS6_, symObjAddr: 0x9F10, symBinAddr: 0x10001FD90, symSize: 0x40 }
  - { offsetInCU: 0x11CC8, offset: 0x5EE0F, size: 0x8, addend: 0x0, symName: __ZNSt3__114__split_bufferINS_10shared_ptrI5EnemyEERNS_9allocatorIS3_EEED1Ev, symObjAddr: 0xA080, symBinAddr: 0x10001FF00, symSize: 0x20 }
  - { offsetInCU: 0x11CF4, offset: 0x5EE3B, size: 0x8, addend: 0x0, symName: __ZNKSt3__16vectorINS_10shared_ptrI5EnemyEENS_9allocatorIS3_EEE8max_sizeEv, symObjAddr: 0xA0A0, symBinAddr: 0x10001FF20, symSize: 0x70 }
  - { offsetInCU: 0x11D1C, offset: 0x5EE63, size: 0x8, addend: 0x0, symName: __ZNKSt3__16vectorINS_10shared_ptrI5EnemyEENS_9allocatorIS3_EEE20__throw_length_errorB7v160006Ev, symObjAddr: 0xA110, symBinAddr: 0x10001FF90, symSize: 0x20 }
  - { offsetInCU: 0x11D4C, offset: 0x5EE93, size: 0x8, addend: 0x0, symName: __ZNSt3__116allocator_traitsINS_9allocatorINS_10shared_ptrI5EnemyEEEEE8max_sizeB7v160006IS5_vEEmRKS5_, symObjAddr: 0xA160, symBinAddr: 0x10001FFB0, symSize: 0x20 }
  - { offsetInCU: 0x11D7A, offset: 0x5EEC1, size: 0x8, addend: 0x0, symName: __ZNKSt3__16vectorINS_10shared_ptrI5EnemyEENS_9allocatorIS3_EEE7__allocB7v160006Ev, symObjAddr: 0xA180, symBinAddr: 0x10001FFD0, symSize: 0x20 }
  - { offsetInCU: 0x11DA0, offset: 0x5EEE7, size: 0x8, addend: 0x0, symName: __ZNKSt3__19allocatorINS_10shared_ptrI5EnemyEEE8max_sizeB7v160006Ev, symObjAddr: 0xA1A0, symBinAddr: 0x10001FFF0, symSize: 0x20 }
  - { offsetInCU: 0x11DC6, offset: 0x5EF0D, size: 0x8, addend: 0x0, symName: __ZNKSt3__117__compressed_pairIPNS_10shared_ptrI5EnemyEENS_9allocatorIS3_EEE6secondB7v160006Ev, symObjAddr: 0xA1C0, symBinAddr: 0x100020010, symSize: 0x20 }
  - { offsetInCU: 0x11DEC, offset: 0x5EF33, size: 0x8, addend: 0x0, symName: __ZNKSt3__122__compressed_pair_elemINS_9allocatorINS_10shared_ptrI5EnemyEEEELi1ELb1EE5__getB7v160006Ev, symObjAddr: 0xA1E0, symBinAddr: 0x100020030, symSize: 0x10 }
  - { offsetInCU: 0x11E12, offset: 0x5EF59, size: 0x8, addend: 0x0, symName: __ZNSt3__114__split_bufferINS_10shared_ptrI5EnemyEERNS_9allocatorIS3_EEEC2EmmS6_, symObjAddr: 0xA240, symBinAddr: 0x100020040, symSize: 0xD0 }
  - { offsetInCU: 0x11E85, offset: 0x5EFCC, size: 0x8, addend: 0x0, symName: __ZNSt3__117__compressed_pairIPNS_10shared_ptrI5EnemyEERNS_9allocatorIS3_EEEC1B7v160006IDnS7_EEOT_OT0_, symObjAddr: 0xA310, symBinAddr: 0x100020110, symSize: 0x30 }
  - { offsetInCU: 0x11EDD, offset: 0x5F024, size: 0x8, addend: 0x0, symName: __ZNSt3__114__split_bufferINS_10shared_ptrI5EnemyEERNS_9allocatorIS3_EEE7__allocB7v160006Ev, symObjAddr: 0xA380, symBinAddr: 0x100020180, symSize: 0x20 }
  - { offsetInCU: 0x11F03, offset: 0x5F04A, size: 0x8, addend: 0x0, symName: __ZNSt3__114__split_bufferINS_10shared_ptrI5EnemyEERNS_9allocatorIS3_EEE9__end_capB7v160006Ev, symObjAddr: 0xA3A0, symBinAddr: 0x1000201A0, symSize: 0x20 }
  - { offsetInCU: 0x11F29, offset: 0x5F070, size: 0x8, addend: 0x0, symName: __ZNSt3__117__compressed_pairIPNS_10shared_ptrI5EnemyEERNS_9allocatorIS3_EEEC2B7v160006IDnS7_EEOT_OT0_, symObjAddr: 0xA3C0, symBinAddr: 0x1000201C0, symSize: 0x40 }
  - { offsetInCU: 0x11F81, offset: 0x5F0C8, size: 0x8, addend: 0x0, symName: __ZNSt3__122__compressed_pair_elemIRNS_9allocatorINS_10shared_ptrI5EnemyEEEELi1ELb0EEC2B7v160006IS6_vEEOT_, symObjAddr: 0xA400, symBinAddr: 0x100020200, symSize: 0x20 }
  - { offsetInCU: 0x11FC3, offset: 0x5F10A, size: 0x8, addend: 0x0, symName: __ZNSt3__19allocatorINS_10shared_ptrI5EnemyEEE8allocateB7v160006Em, symObjAddr: 0xA420, symBinAddr: 0x100020220, symSize: 0x80 }
  - { offsetInCU: 0x11FF7, offset: 0x5F13E, size: 0x8, addend: 0x0, symName: __ZNSt3__117__compressed_pairIPNS_10shared_ptrI5EnemyEERNS_9allocatorIS3_EEE6secondB7v160006Ev, symObjAddr: 0xA4A0, symBinAddr: 0x1000202A0, symSize: 0x20 }
  - { offsetInCU: 0x1201D, offset: 0x5F164, size: 0x8, addend: 0x0, symName: __ZNSt3__122__compressed_pair_elemIRNS_9allocatorINS_10shared_ptrI5EnemyEEEELi1ELb0EE5__getB7v160006Ev, symObjAddr: 0xA4C0, symBinAddr: 0x1000202C0, symSize: 0x20 }
  - { offsetInCU: 0x12043, offset: 0x5F18A, size: 0x8, addend: 0x0, symName: __ZNSt3__117__compressed_pairIPNS_10shared_ptrI5EnemyEERNS_9allocatorIS3_EEE5firstB7v160006Ev, symObjAddr: 0xA4E0, symBinAddr: 0x1000202E0, symSize: 0x20 }
  - { offsetInCU: 0x12069, offset: 0x5F1B0, size: 0x8, addend: 0x0, symName: __ZNSt3__116reverse_iteratorIPNS_10shared_ptrI5EnemyEEEC1B7v160006ES4_, symObjAddr: 0xA690, symBinAddr: 0x100020490, symSize: 0x30 }
  - { offsetInCU: 0x120A1, offset: 0x5F1E8, size: 0x8, addend: 0x0, symName: __ZNKSt3__116reverse_iteratorIPNS_10shared_ptrI5EnemyEEE4baseB7v160006Ev, symObjAddr: 0xA6C0, symBinAddr: 0x1000204C0, symSize: 0x20 }
  - { offsetInCU: 0x120C7, offset: 0x5F20E, size: 0x8, addend: 0x0, symName: __ZNKSt3__16vectorINS_10shared_ptrI5EnemyEENS_9allocatorIS3_EEE14__annotate_newB7v160006Em, symObjAddr: 0xA720, symBinAddr: 0x100020520, symSize: 0xB0 }
  - { offsetInCU: 0x120FC, offset: 0x5F243, size: 0x8, addend: 0x0, symName: __ZNSt3__129_AllocatorDestroyRangeReverseINS_9allocatorINS_10shared_ptrI5EnemyEEEENS_16reverse_iteratorIPS4_EEEC1B7v160006ERS5_RS8_SB_, symObjAddr: 0xA840, symBinAddr: 0x100020640, symSize: 0x40 }
  - { offsetInCU: 0x12153, offset: 0x5F29A, size: 0x8, addend: 0x0, symName: __ZNKSt3__116reverse_iteratorIPNS_10shared_ptrI5EnemyEEEdeB7v160006Ev, symObjAddr: 0xA8E0, symBinAddr: 0x1000206E0, symSize: 0x30 }
  - { offsetInCU: 0x12187, offset: 0x5F2CE, size: 0x8, addend: 0x0, symName: __ZNSt3__116reverse_iteratorIPNS_10shared_ptrI5EnemyEEEppB7v160006Ev, symObjAddr: 0xA910, symBinAddr: 0x100020710, symSize: 0x20 }
  - { offsetInCU: 0x121AD, offset: 0x5F2F4, size: 0x8, addend: 0x0, symName: __ZNSt3__128__exception_guard_exceptionsINS_29_AllocatorDestroyRangeReverseINS_9allocatorINS_10shared_ptrI5EnemyEEEENS_16reverse_iteratorIPS5_EEEEE10__completeB7v160006Ev, symObjAddr: 0xA930, symBinAddr: 0x100020730, symSize: 0x20 }
  - { offsetInCU: 0x121D3, offset: 0x5F31A, size: 0x8, addend: 0x0, symName: __ZNSt3__128__exception_guard_exceptionsINS_29_AllocatorDestroyRangeReverseINS_9allocatorINS_10shared_ptrI5EnemyEEEENS_16reverse_iteratorIPS5_EEEEED1B7v160006Ev, symObjAddr: 0xA950, symBinAddr: 0x100020750, symSize: 0x20 }
  - { offsetInCU: 0x121FD, offset: 0x5F344, size: 0x8, addend: 0x0, symName: __ZNSt3__128__exception_guard_exceptionsINS_29_AllocatorDestroyRangeReverseINS_9allocatorINS_10shared_ptrI5EnemyEEEENS_16reverse_iteratorIPS5_EEEEEC1B7v160006ESA_, symObjAddr: 0xA970, symBinAddr: 0x100020770, symSize: 0x40 }
  - { offsetInCU: 0x12235, offset: 0x5F37C, size: 0x8, addend: 0x0, symName: __ZNSt3__128__exception_guard_exceptionsINS_29_AllocatorDestroyRangeReverseINS_9allocatorINS_10shared_ptrI5EnemyEEEENS_16reverse_iteratorIPS5_EEEEEC2B7v160006ESA_, symObjAddr: 0xA9B0, symBinAddr: 0x1000207B0, symSize: 0x30 }
  - { offsetInCU: 0x1226D, offset: 0x5F3B4, size: 0x8, addend: 0x0, symName: __ZNSt3__129_AllocatorDestroyRangeReverseINS_9allocatorINS_10shared_ptrI5EnemyEEEENS_16reverse_iteratorIPS4_EEEC2B7v160006ERS5_RS8_SB_, symObjAddr: 0xA9E0, symBinAddr: 0x1000207E0, symSize: 0x40 }
  - { offsetInCU: 0x122C9, offset: 0x5F410, size: 0x8, addend: 0x0, symName: __ZNSt3__119__to_address_helperINS_16reverse_iteratorIPNS_10shared_ptrI5EnemyEEEEvE6__callB7v160006ERKS6_, symObjAddr: 0xAA20, symBinAddr: 0x100020820, symSize: 0x50 }
  - { offsetInCU: 0x122EC, offset: 0x5F433, size: 0x8, addend: 0x0, symName: __ZNKSt3__116reverse_iteratorIPNS_10shared_ptrI5EnemyEEEptB7v160006Ev, symObjAddr: 0xAA70, symBinAddr: 0x100020870, symSize: 0x20 }
  - { offsetInCU: 0x12312, offset: 0x5F459, size: 0x8, addend: 0x0, symName: __ZNSt3__128__exception_guard_exceptionsINS_29_AllocatorDestroyRangeReverseINS_9allocatorINS_10shared_ptrI5EnemyEEEENS_16reverse_iteratorIPS5_EEEEED2B7v160006Ev, symObjAddr: 0xAA90, symBinAddr: 0x100020890, symSize: 0x30 }
  - { offsetInCU: 0x1233C, offset: 0x5F483, size: 0x8, addend: 0x0, symName: __ZNKSt3__129_AllocatorDestroyRangeReverseINS_9allocatorINS_10shared_ptrI5EnemyEEEENS_16reverse_iteratorIPS4_EEEclB7v160006Ev, symObjAddr: 0xAAC0, symBinAddr: 0x1000208C0, symSize: 0xF0 }
  - { offsetInCU: 0x12363, offset: 0x5F4AA, size: 0x8, addend: 0x0, symName: __ZNSt3__116reverse_iteratorINS0_IPNS_10shared_ptrI5EnemyEEEEEC1B7v160006ES5_, symObjAddr: 0xAC20, symBinAddr: 0x100020A20, symSize: 0x30 }
  - { offsetInCU: 0x1239B, offset: 0x5F4E2, size: 0x8, addend: 0x0, symName: __ZNSt3__116reverse_iteratorINS0_IPNS_10shared_ptrI5EnemyEEEEEppB7v160006Ev, symObjAddr: 0xACC0, symBinAddr: 0x100020AC0, symSize: 0x30 }
  - { offsetInCU: 0x123C1, offset: 0x5F508, size: 0x8, addend: 0x0, symName: __ZNKSt3__116reverse_iteratorINS0_IPNS_10shared_ptrI5EnemyEEEEE4baseB7v160006Ev, symObjAddr: 0xACF0, symBinAddr: 0x100020AF0, symSize: 0x20 }
  - { offsetInCU: 0x123EC, offset: 0x5F533, size: 0x8, addend: 0x0, symName: __ZNSt3__119__to_address_helperINS_16reverse_iteratorINS1_IPNS_10shared_ptrI5EnemyEEEEEEvE6__callB7v160006ERKS7_, symObjAddr: 0xAD10, symBinAddr: 0x100020B10, symSize: 0x50 }
  - { offsetInCU: 0x1240F, offset: 0x5F556, size: 0x8, addend: 0x0, symName: __ZNKSt3__116reverse_iteratorINS0_IPNS_10shared_ptrI5EnemyEEEEEptB7v160006Ev, symObjAddr: 0xAD60, symBinAddr: 0x100020B60, symSize: 0x20 }
  - { offsetInCU: 0x12435, offset: 0x5F57C, size: 0x8, addend: 0x0, symName: __ZNKSt3__116reverse_iteratorINS0_IPNS_10shared_ptrI5EnemyEEEEEdeB7v160006Ev, symObjAddr: 0xAD80, symBinAddr: 0x100020B80, symSize: 0x40 }
  - { offsetInCU: 0x12469, offset: 0x5F5B0, size: 0x8, addend: 0x0, symName: __ZNSt3__116reverse_iteratorIPNS_10shared_ptrI5EnemyEEEmmB7v160006Ev, symObjAddr: 0xADC0, symBinAddr: 0x100020BC0, symSize: 0x20 }
  - { offsetInCU: 0x1248F, offset: 0x5F5D6, size: 0x8, addend: 0x0, symName: __ZNSt3__116reverse_iteratorINS0_IPNS_10shared_ptrI5EnemyEEEEEC2B7v160006ES5_, symObjAddr: 0xADE0, symBinAddr: 0x100020BE0, symSize: 0x40 }
  - { offsetInCU: 0x124C7, offset: 0x5F60E, size: 0x8, addend: 0x0, symName: __ZNSt3__116reverse_iteratorIPNS_10shared_ptrI5EnemyEEEC2B7v160006ES4_, symObjAddr: 0xAE20, symBinAddr: 0x100020C20, symSize: 0x30 }
  - { offsetInCU: 0x124FF, offset: 0x5F646, size: 0x8, addend: 0x0, symName: __ZNSt3__114__split_bufferINS_10shared_ptrI5EnemyEERNS_9allocatorIS3_EEED2Ev, symObjAddr: 0xAE50, symBinAddr: 0x100020C50, symSize: 0x60 }
  - { offsetInCU: 0x1252B, offset: 0x5F672, size: 0x8, addend: 0x0, symName: __ZNSt3__114__split_bufferINS_10shared_ptrI5EnemyEERNS_9allocatorIS3_EEE5clearB7v160006Ev, symObjAddr: 0xAEB0, symBinAddr: 0x100020CB0, symSize: 0x20 }
  - { offsetInCU: 0x12551, offset: 0x5F698, size: 0x8, addend: 0x0, symName: __ZNKSt3__114__split_bufferINS_10shared_ptrI5EnemyEERNS_9allocatorIS3_EEE8capacityB7v160006Ev, symObjAddr: 0xAED0, symBinAddr: 0x100020CD0, symSize: 0x30 }
  - { offsetInCU: 0x12577, offset: 0x5F6BE, size: 0x8, addend: 0x0, symName: __ZNSt3__114__split_bufferINS_10shared_ptrI5EnemyEERNS_9allocatorIS3_EEE17__destruct_at_endB7v160006EPS3_, symObjAddr: 0xAF00, symBinAddr: 0x100020D00, symSize: 0x30 }
  - { offsetInCU: 0x125AB, offset: 0x5F6F2, size: 0x8, addend: 0x0, symName: __ZNSt3__114__split_bufferINS_10shared_ptrI5EnemyEERNS_9allocatorIS3_EEE17__destruct_at_endB7v160006EPS3_NS_17integral_constantIbLb0EEE, symObjAddr: 0xAF30, symBinAddr: 0x100020D30, symSize: 0x80 }
  - { offsetInCU: 0x125EC, offset: 0x5F733, size: 0x8, addend: 0x0, symName: __ZNKSt3__114__split_bufferINS_10shared_ptrI5EnemyEERNS_9allocatorIS3_EEE9__end_capB7v160006Ev, symObjAddr: 0xAFB0, symBinAddr: 0x100020DB0, symSize: 0x20 }
  - { offsetInCU: 0x12612, offset: 0x5F759, size: 0x8, addend: 0x0, symName: __ZNKSt3__117__compressed_pairIPNS_10shared_ptrI5EnemyEERNS_9allocatorIS3_EEE5firstB7v160006Ev, symObjAddr: 0xAFD0, symBinAddr: 0x100020DD0, symSize: 0x20 }
  - { offsetInCU: 0x12638, offset: 0x5F77F, size: 0x8, addend: 0x0, symName: __ZNSt3__16vectorINS_10shared_ptrI5EnemyEENS_9allocatorIS3_EEE22__construct_one_at_endB7v160006IJS3_EEEvDpOT_, symObjAddr: 0xAFF0, symBinAddr: 0x100020DF0, symSize: 0xA0 }
  - { offsetInCU: 0x12687, offset: 0x5F7CE, size: 0x8, addend: 0x0, symName: __ZNSt3__16vectorINS_10shared_ptrI5EnemyEENS_9allocatorIS3_EEE21__push_back_slow_pathIS3_EEvOT_, symObjAddr: 0xB090, symBinAddr: 0x100020E90, symSize: 0xE0 }
  - { offsetInCU: 0x126E5, offset: 0x5F82C, size: 0x8, addend: 0x0, symName: __ZNSt3__116allocator_traitsINS_9allocatorINS_10shared_ptrI5EnemyEEEEE9constructB7v160006IS4_JS4_EvEEvRS5_PT_DpOT0_, symObjAddr: 0xB170, symBinAddr: 0x100020F70, symSize: 0x30 }
  - { offsetInCU: 0x1273C, offset: 0x5F883, size: 0x8, addend: 0x0, symName: __ZNSt3__19allocatorINS_10shared_ptrI5EnemyEEE9constructB7v160006IS3_JS3_EEEvPT_DpOT0_, symObjAddr: 0xB1A0, symBinAddr: 0x100020FA0, symSize: 0x30 }
  - { offsetInCU: 0x12792, offset: 0x5F8D9, size: 0x8, addend: 0x0, symName: __ZNSt3__110shared_ptrI5EnemyEC1B7v160006EOS2_, symObjAddr: 0xB1D0, symBinAddr: 0x100020FD0, symSize: 0x30 }
  - { offsetInCU: 0x127CB, offset: 0x5F912, size: 0x8, addend: 0x0, symName: __ZNSt3__110shared_ptrI5EnemyEC2B7v160006EOS2_, symObjAddr: 0xB200, symBinAddr: 0x100021000, symSize: 0x40 }
  - { offsetInCU: 0x12804, offset: 0x5F94B, size: 0x8, addend: 0x0, symName: __ZNSt3__110shared_ptrI5EnemyEC2B7v160006EDn, symObjAddr: 0xB240, symBinAddr: 0x100021040, symSize: 0x30 }
  - { offsetInCU: 0x12857, offset: 0x5F99E, size: 0x8, addend: 0x0, symName: __ZNSt3__111char_traitsIcE2eqEcc, symObjAddr: 0xB9C0, symBinAddr: 0x100021290, symSize: 0x30 }
  - { offsetInCU: 0x63, offset: 0x5FC4E, size: 0x8, addend: 0x0, symName: _map, symObjAddr: 0x31B48, symBinAddr: 0x100030068, symSize: 0x0 }
  - { offsetInCU: 0x7B18, offset: 0x67703, size: 0x8, addend: 0x0, symName: __Z6setMapRNSt3__114basic_ifstreamIcNS_11char_traitsIcEEEE, symObjAddr: 0xB0, symBinAddr: 0x1000212C0, symSize: 0x2C0 }
  - { offsetInCU: 0x7BB0, offset: 0x6779B, size: 0x8, addend: 0x0, symName: __Z8printMapNSt3__16vectorIiNS_9allocatorIiEEEE, symObjAddr: 0x3C0, symBinAddr: 0x100021580, symSize: 0x1330 }
  - { offsetInCU: 0x31B9, offset: 0x6AB0B, size: 0x8, addend: 0x0, symName: __ZNSt3__119__str_find_first_ofB7v160006IcmNS_11char_traitsIcEELm18446744073709551615EEET0_PKT_S3_S6_S3_S3_, symObjAddr: 0x2940, symBinAddr: 0x100023730, symSize: 0xE0 }
  - { offsetInCU: 0x3260, offset: 0x6ABB2, size: 0x8, addend: 0x0, symName: __ZNSt3__118__find_first_of_ceB7v160006IPKcS2_RFbccEEET_S5_S5_T0_S6_OT1_, symObjAddr: 0x2AE0, symBinAddr: 0x100023810, symSize: 0xB0 }
  - { offsetInCU: 0x52EF, offset: 0x6CC41, size: 0x8, addend: 0x0, symName: __ZN6Player6getPosEv, symObjAddr: 0x0, symBinAddr: 0x100022960, symSize: 0x30 }
  - { offsetInCU: 0x5317, offset: 0x6CC69, size: 0x8, addend: 0x0, symName: __ZN6Player6getExpEi, symObjAddr: 0x60, symBinAddr: 0x100022990, symSize: 0x30 }
  - { offsetInCU: 0x534D, offset: 0x6CC9F, size: 0x8, addend: 0x0, symName: __ZN6Player7levelUpEv, symObjAddr: 0x90, symBinAddr: 0x1000229C0, symSize: 0x50 }
  - { offsetInCU: 0x5375, offset: 0x6CCC7, size: 0x8, addend: 0x0, symName: __ZN6Player4moveENSt3__112basic_stringIcNS0_11char_traitsIcEENS0_9allocatorIcEEEERi, symObjAddr: 0xE0, symBinAddr: 0x100022A10, symSize: 0x880 }
  - { offsetInCU: 0x5410, offset: 0x6CD62, size: 0x8, addend: 0x0, symName: __ZNKSt3__112basic_stringIcNS_11char_traitsIcEENS_9allocatorIcEEE13find_first_ofB7v160006EPKcm, symObjAddr: 0x9D0, symBinAddr: 0x100023290, symSize: 0x70 }
  - { offsetInCU: 0x5456, offset: 0x6CDA8, size: 0x8, addend: 0x0, symName: __ZN6Player11printSkillsEv, symObjAddr: 0xB90, symBinAddr: 0x100023300, symSize: 0xF0 }
  - { offsetInCU: 0x5492, offset: 0x6CDE4, size: 0x8, addend: 0x0, symName: __ZN6Player17printChosenSkillsENSt3__16vectorIiNS0_9allocatorIiEEEE, symObjAddr: 0xD30, symBinAddr: 0x1000233F0, symSize: 0x150 }
  - { offsetInCU: 0x54DD, offset: 0x6CE2F, size: 0x8, addend: 0x0, symName: __ZN6Player21printChosenSkillsNameEv, symObjAddr: 0xEA0, symBinAddr: 0x100023540, symSize: 0x100 }
  - { offsetInCU: 0x5519, offset: 0x6CE6B, size: 0x8, addend: 0x0, symName: __ZN6Player11chooseSkillEi, symObjAddr: 0x1000, symBinAddr: 0x100023640, symSize: 0xE0 }
  - { offsetInCU: 0x556B, offset: 0x6CEBD, size: 0x8, addend: 0x0, symName: __ZN6Player10attackModeEv, symObjAddr: 0x1140, symBinAddr: 0x100023720, symSize: 0x10 }
  - { offsetInCU: 0x3F, offset: 0x6CF55, size: 0x8, addend: 0x0, symName: _skillList, symObjAddr: 0x69E30, symBinAddr: 0x100030080, symSize: 0x0 }
  - { offsetInCU: 0x6A9B, offset: 0x739B1, size: 0x8, addend: 0x0, symName: __ZNSt3__111make_sharedB7v160006I5SkillJRNS_12basic_stringIcNS_11char_traitsIcEENS_9allocatorIcEEEES8_RNS_6vectorIiNS5_IiEEEEEvEENS_10shared_ptrIT_EEDpOT0_, symObjAddr: 0x2FB0, symBinAddr: 0x100025FE0, symSize: 0x50 }
  - { offsetInCU: 0x6B06, offset: 0x73A1C, size: 0x8, addend: 0x0, symName: __ZNSt3__122__make_exception_guardB7v160006INS_6vectorINS1_INS_10shared_ptrI5SkillEENS_9allocatorIS4_EEEENS5_IS7_EEE16__destroy_vectorEEENS_28__exception_guard_exceptionsIT_EESC_, symObjAddr: 0x3F50, symBinAddr: 0x100026150, symSize: 0x40 }
  - { offsetInCU: 0x6B3B, offset: 0x73A51, size: 0x8, addend: 0x0, symName: __ZNSt3__119__debug_db_insert_cB7v160006INS_6vectorINS1_INS_10shared_ptrI5SkillEENS_9allocatorIS4_EEEENS5_IS7_EEEEEEvPT_, symObjAddr: 0x3FC0, symBinAddr: 0x1000261C0, symSize: 0x10 }
  - { offsetInCU: 0x6B6C, offset: 0x73A82, size: 0x8, addend: 0x0, symName: __ZNSt3__119__allocate_at_leastB7v160006INS_9allocatorINS_6vectorINS_10shared_ptrI5SkillEENS1_IS5_EEEEEEEENS_19__allocation_resultINS_16allocator_traitsIT_E7pointerEEERSB_m, symObjAddr: 0x4330, symBinAddr: 0x100026530, symSize: 0x40 }
  - { offsetInCU: 0x6BAF, offset: 0x73AC5, size: 0x8, addend: 0x0, symName: __ZNSt3__112__to_addressB7v160006INS_6vectorINS_10shared_ptrI5SkillEENS_9allocatorIS4_EEEEEEPT_S9_, symObjAddr: 0x4870, symBinAddr: 0x100026840, symSize: 0x10 }
  - { offsetInCU: 0x6BE4, offset: 0x73AFA, size: 0x8, addend: 0x0, symName: __ZNSt3__118__debug_db_erase_cB7v160006INS_6vectorINS1_INS_10shared_ptrI5SkillEENS_9allocatorIS4_EEEENS5_IS7_EEEEEEvPT_, symObjAddr: 0x4B40, symBinAddr: 0x100026B10, symSize: 0x10 }
  - { offsetInCU: 0x719F, offset: 0x740B5, size: 0x8, addend: 0x0, symName: __ZNSt3__115allocate_sharedB7v160006I5SkillNS_9allocatorIS1_EEJRNS_12basic_stringIcNS_11char_traitsIcEENS2_IcEEEES9_RNS_6vectorIiNS2_IiEEEEEvEENS_10shared_ptrIT_EERKT0_DpOT1_, symObjAddr: 0x8340, symBinAddr: 0x100026D30, symSize: 0xC0 }
  - { offsetInCU: 0x7E84, offset: 0x74D9A, size: 0x8, addend: 0x0, symName: _PokemonSkills, symObjAddr: 0x69E48, symBinAddr: 0x100030098, symSize: 0x0 }
  - { offsetInCU: 0x9FD3, offset: 0x76EE9, size: 0x8, addend: 0x0, symName: __ZNSt3__16vectorINS0_INS_10shared_ptrI5SkillEENS_9allocatorIS3_EEEENS4_IS6_EEEC1Em, symObjAddr: 0x40, symBinAddr: 0x1000238C0, symSize: 0x30 }
  - { offsetInCU: 0xA00E, offset: 0x76F24, size: 0x8, addend: 0x0, symName: __ZNSt3__16vectorINS0_INS_10shared_ptrI5SkillEENS_9allocatorIS3_EEEENS4_IS6_EEED1B7v160006Ev, symObjAddr: 0x70, symBinAddr: 0x1000238F0, symSize: 0x20 }
  - { offsetInCU: 0xA038, offset: 0x76F4E, size: 0x8, addend: 0x0, symName: __ZN5SkillC2ENSt3__112basic_stringIcNS0_11char_traitsIcEENS0_9allocatorIcEEEES6_NS0_6vectorIiNS4_IiEEEE, symObjAddr: 0x90, symBinAddr: 0x100023910, symSize: 0x250 }
  - { offsetInCU: 0xA0C2, offset: 0x76FD8, size: 0x8, addend: 0x0, symName: __ZN5SkillC1ENSt3__112basic_stringIcNS0_11char_traitsIcEENS0_9allocatorIcEEEES6_NS0_6vectorIiNS4_IiEEEE, symObjAddr: 0x5F0, symBinAddr: 0x100023B60, symSize: 0x30 }
  - { offsetInCU: 0xA11B, offset: 0x77031, size: 0x8, addend: 0x0, symName: __ZN5Skill5printEi, symObjAddr: 0x620, symBinAddr: 0x100023B90, symSize: 0x440 }
  - { offsetInCU: 0xA151, offset: 0x77067, size: 0x8, addend: 0x0, symName: __ZN5Skill5printEiNSt3__110shared_ptrIS_EE, symObjAddr: 0xBE0, symBinAddr: 0x100023FD0, symSize: 0xAE0 }
  - { offsetInCU: 0xA196, offset: 0x770AC, size: 0x8, addend: 0x0, symName: __ZN5Skill5printEii, symObjAddr: 0x16E0, symBinAddr: 0x100024AB0, symSize: 0x450 }
  - { offsetInCU: 0xA1DA, offset: 0x770F0, size: 0x8, addend: 0x0, symName: __ZN5Skill5printEiiNSt3__110shared_ptrIS_EEi, symObjAddr: 0x1B30, symBinAddr: 0x100024F00, symSize: 0xAB0 }
  - { offsetInCU: 0xA23B, offset: 0x77151, size: 0x8, addend: 0x0, symName: __ZN5Skill14addDescriptionENSt3__112basic_stringIcNS0_11char_traitsIcEENS0_9allocatorIcEEEE, symObjAddr: 0x25E0, symBinAddr: 0x1000259B0, symSize: 0x30 }
  - { offsetInCU: 0xA272, offset: 0x77188, size: 0x8, addend: 0x0, symName: __ZN5Skill8checkAtkEv, symObjAddr: 0x2610, symBinAddr: 0x1000259E0, symSize: 0x170 }
  - { offsetInCU: 0xA2CB, offset: 0x771E1, size: 0x8, addend: 0x0, symName: __ZN5Skill12compareSpeedENSt3__110shared_ptrIS_EE, symObjAddr: 0x2840, symBinAddr: 0x100025B50, symSize: 0xC0 }
  - { offsetInCU: 0xA301, offset: 0x77217, size: 0x8, addend: 0x0, symName: __Z8setSkillRNSt3__114basic_ifstreamIcNS_11char_traitsIcEEEE, symObjAddr: 0x2900, symBinAddr: 0x100025C10, symSize: 0x3D0 }
  - { offsetInCU: 0xA3F3, offset: 0x77309, size: 0x8, addend: 0x0, symName: __ZNSt3__16vectorINS0_INS_10shared_ptrI5SkillEENS_9allocatorIS3_EEEENS4_IS6_EEEC2Em, symObjAddr: 0x3E30, symBinAddr: 0x100026030, symSize: 0xF0 }
  - { offsetInCU: 0xA443, offset: 0x77359, size: 0x8, addend: 0x0, symName: __ZNSt3__117__compressed_pairIPNS_6vectorINS_10shared_ptrI5SkillEENS_9allocatorIS4_EEEENS5_IS7_EEEC1B7v160006IDnNS_18__default_init_tagEEEOT_OT0_, symObjAddr: 0x3F20, symBinAddr: 0x100026120, symSize: 0x30 }
  - { offsetInCU: 0xA49B, offset: 0x773B1, size: 0x8, addend: 0x0, symName: __ZNSt3__16vectorINS0_INS_10shared_ptrI5SkillEENS_9allocatorIS3_EEEENS4_IS6_EEE16__destroy_vectorC1ERS8_, symObjAddr: 0x3F90, symBinAddr: 0x100026190, symSize: 0x30 }
  - { offsetInCU: 0xA4D4, offset: 0x773EA, size: 0x8, addend: 0x0, symName: __ZNSt3__16vectorINS0_INS_10shared_ptrI5SkillEENS_9allocatorIS3_EEEENS4_IS6_EEE11__vallocateB7v160006Em, symObjAddr: 0x3FD0, symBinAddr: 0x1000261D0, symSize: 0xA0 }
  - { offsetInCU: 0xA518, offset: 0x7742E, size: 0x8, addend: 0x0, symName: __ZNSt3__16vectorINS0_INS_10shared_ptrI5SkillEENS_9allocatorIS3_EEEENS4_IS6_EEE18__construct_at_endEm, symObjAddr: 0x4070, symBinAddr: 0x100026270, symSize: 0xD0 }
  - { offsetInCU: 0xA58A, offset: 0x774A0, size: 0x8, addend: 0x0, symName: __ZNSt3__128__exception_guard_exceptionsINS_6vectorINS1_INS_10shared_ptrI5SkillEENS_9allocatorIS4_EEEENS5_IS7_EEE16__destroy_vectorEE10__completeB7v160006Ev, symObjAddr: 0x4140, symBinAddr: 0x100026340, symSize: 0x20 }
  - { offsetInCU: 0xA5B0, offset: 0x774C6, size: 0x8, addend: 0x0, symName: __ZNSt3__128__exception_guard_exceptionsINS_6vectorINS1_INS_10shared_ptrI5SkillEENS_9allocatorIS4_EEEENS5_IS7_EEE16__destroy_vectorEED1B7v160006Ev, symObjAddr: 0x4160, symBinAddr: 0x100026360, symSize: 0x20 }
  - { offsetInCU: 0xA5DA, offset: 0x774F0, size: 0x8, addend: 0x0, symName: __ZNSt3__117__compressed_pairIPNS_6vectorINS_10shared_ptrI5SkillEENS_9allocatorIS4_EEEENS5_IS7_EEEC2B7v160006IDnNS_18__default_init_tagEEEOT_OT0_, symObjAddr: 0x4180, symBinAddr: 0x100026380, symSize: 0x40 }
  - { offsetInCU: 0xA632, offset: 0x77548, size: 0x8, addend: 0x0, symName: __ZNSt3__122__compressed_pair_elemIPNS_6vectorINS_10shared_ptrI5SkillEENS_9allocatorIS4_EEEELi0ELb0EEC2B7v160006IDnvEEOT_, symObjAddr: 0x41C0, symBinAddr: 0x1000263C0, symSize: 0x20 }
  - { offsetInCU: 0xA674, offset: 0x7758A, size: 0x8, addend: 0x0, symName: __ZNSt3__122__compressed_pair_elemINS_9allocatorINS_6vectorINS_10shared_ptrI5SkillEENS1_IS5_EEEEEELi1ELb1EEC2B7v160006ENS_18__default_init_tagE, symObjAddr: 0x41E0, symBinAddr: 0x1000263E0, symSize: 0x20 }
  - { offsetInCU: 0xA6A9, offset: 0x775BF, size: 0x8, addend: 0x0, symName: __ZNSt3__19allocatorINS_6vectorINS_10shared_ptrI5SkillEENS0_IS4_EEEEEC2B7v160006Ev, symObjAddr: 0x4200, symBinAddr: 0x100026400, symSize: 0x20 }
  - { offsetInCU: 0xA6D3, offset: 0x775E9, size: 0x8, addend: 0x0, symName: __ZNSt3__116__non_trivial_ifILb1ENS_9allocatorINS_6vectorINS_10shared_ptrI5SkillEENS1_IS5_EEEEEEEC2B7v160006Ev, symObjAddr: 0x4220, symBinAddr: 0x100026420, symSize: 0x10 }
  - { offsetInCU: 0xA6FD, offset: 0x77613, size: 0x8, addend: 0x0, symName: __ZNSt3__128__exception_guard_exceptionsINS_6vectorINS1_INS_10shared_ptrI5SkillEENS_9allocatorIS4_EEEENS5_IS7_EEE16__destroy_vectorEEC1B7v160006ESA_, symObjAddr: 0x4230, symBinAddr: 0x100026430, symSize: 0x30 }
  - { offsetInCU: 0xA735, offset: 0x7764B, size: 0x8, addend: 0x0, symName: __ZNSt3__128__exception_guard_exceptionsINS_6vectorINS1_INS_10shared_ptrI5SkillEENS_9allocatorIS4_EEEENS5_IS7_EEE16__destroy_vectorEEC2B7v160006ESA_, symObjAddr: 0x4260, symBinAddr: 0x100026460, symSize: 0x20 }
  - { offsetInCU: 0xA76D, offset: 0x77683, size: 0x8, addend: 0x0, symName: __ZNSt3__16vectorINS0_INS_10shared_ptrI5SkillEENS_9allocatorIS3_EEEENS4_IS6_EEE16__destroy_vectorC2ERS8_, symObjAddr: 0x4280, symBinAddr: 0x100026480, symSize: 0x20 }
  - { offsetInCU: 0xA7A6, offset: 0x776BC, size: 0x8, addend: 0x0, symName: __ZNKSt3__16vectorINS0_INS_10shared_ptrI5SkillEENS_9allocatorIS3_EEEENS4_IS6_EEE8max_sizeEv, symObjAddr: 0x42A0, symBinAddr: 0x1000264A0, symSize: 0x70 }
  - { offsetInCU: 0xA7CE, offset: 0x776E4, size: 0x8, addend: 0x0, symName: __ZNKSt3__16vectorINS0_INS_10shared_ptrI5SkillEENS_9allocatorIS3_EEEENS4_IS6_EEE20__throw_length_errorB7v160006Ev, symObjAddr: 0x4310, symBinAddr: 0x100026510, symSize: 0x20 }
  - { offsetInCU: 0xA7F4, offset: 0x7770A, size: 0x8, addend: 0x0, symName: __ZNSt3__16vectorINS0_INS_10shared_ptrI5SkillEENS_9allocatorIS3_EEEENS4_IS6_EEE7__allocB7v160006Ev, symObjAddr: 0x4370, symBinAddr: 0x100026570, symSize: 0x20 }
  - { offsetInCU: 0xA81A, offset: 0x77730, size: 0x8, addend: 0x0, symName: __ZNSt3__16vectorINS0_INS_10shared_ptrI5SkillEENS_9allocatorIS3_EEEENS4_IS6_EEE9__end_capB7v160006Ev, symObjAddr: 0x4390, symBinAddr: 0x100026590, symSize: 0x20 }
  - { offsetInCU: 0xA840, offset: 0x77756, size: 0x8, addend: 0x0, symName: __ZNKSt3__16vectorINS0_INS_10shared_ptrI5SkillEENS_9allocatorIS3_EEEENS4_IS6_EEE14__annotate_newB7v160006Em, symObjAddr: 0x43B0, symBinAddr: 0x1000265B0, symSize: 0xA0 }
  - { offsetInCU: 0xA87F, offset: 0x77795, size: 0x8, addend: 0x0, symName: __ZNSt3__116allocator_traitsINS_9allocatorINS_6vectorINS_10shared_ptrI5SkillEENS1_IS5_EEEEEEE8max_sizeB7v160006IS8_vEEmRKS8_, symObjAddr: 0x4480, symBinAddr: 0x100026650, symSize: 0x20 }
  - { offsetInCU: 0xA8AD, offset: 0x777C3, size: 0x8, addend: 0x0, symName: __ZNKSt3__16vectorINS0_INS_10shared_ptrI5SkillEENS_9allocatorIS3_EEEENS4_IS6_EEE7__allocB7v160006Ev, symObjAddr: 0x44A0, symBinAddr: 0x100026670, symSize: 0x20 }
  - { offsetInCU: 0xA8D3, offset: 0x777E9, size: 0x8, addend: 0x0, symName: __ZNKSt3__19allocatorINS_6vectorINS_10shared_ptrI5SkillEENS0_IS4_EEEEE8max_sizeB7v160006Ev, symObjAddr: 0x4550, symBinAddr: 0x100026690, symSize: 0x20 }
  - { offsetInCU: 0xA8F9, offset: 0x7780F, size: 0x8, addend: 0x0, symName: __ZNKSt3__117__compressed_pairIPNS_6vectorINS_10shared_ptrI5SkillEENS_9allocatorIS4_EEEENS5_IS7_EEE6secondB7v160006Ev, symObjAddr: 0x4570, symBinAddr: 0x1000266B0, symSize: 0x20 }
  - { offsetInCU: 0xA91F, offset: 0x77835, size: 0x8, addend: 0x0, symName: __ZNKSt3__122__compressed_pair_elemINS_9allocatorINS_6vectorINS_10shared_ptrI5SkillEENS1_IS5_EEEEEELi1ELb1EE5__getB7v160006Ev, symObjAddr: 0x4590, symBinAddr: 0x1000266D0, symSize: 0x10 }
  - { offsetInCU: 0xA945, offset: 0x7785B, size: 0x8, addend: 0x0, symName: __ZNSt3__19allocatorINS_6vectorINS_10shared_ptrI5SkillEENS0_IS4_EEEEE8allocateB7v160006Em, symObjAddr: 0x4690, symBinAddr: 0x1000266E0, symSize: 0x80 }
  - { offsetInCU: 0xA979, offset: 0x7788F, size: 0x8, addend: 0x0, symName: __ZNSt3__117__compressed_pairIPNS_6vectorINS_10shared_ptrI5SkillEENS_9allocatorIS4_EEEENS5_IS7_EEE6secondB7v160006Ev, symObjAddr: 0x4790, symBinAddr: 0x100026760, symSize: 0x20 }
  - { offsetInCU: 0xA99F, offset: 0x778B5, size: 0x8, addend: 0x0, symName: __ZNSt3__122__compressed_pair_elemINS_9allocatorINS_6vectorINS_10shared_ptrI5SkillEENS1_IS5_EEEEEELi1ELb1EE5__getB7v160006Ev, symObjAddr: 0x47B0, symBinAddr: 0x100026780, symSize: 0x10 }
  - { offsetInCU: 0xA9C5, offset: 0x778DB, size: 0x8, addend: 0x0, symName: __ZNSt3__117__compressed_pairIPNS_6vectorINS_10shared_ptrI5SkillEENS_9allocatorIS4_EEEENS5_IS7_EEE5firstB7v160006Ev, symObjAddr: 0x47C0, symBinAddr: 0x100026790, symSize: 0x20 }
  - { offsetInCU: 0xA9EB, offset: 0x77901, size: 0x8, addend: 0x0, symName: __ZNSt3__122__compressed_pair_elemIPNS_6vectorINS_10shared_ptrI5SkillEENS_9allocatorIS4_EEEELi0ELb0EE5__getB7v160006Ev, symObjAddr: 0x47E0, symBinAddr: 0x1000267B0, symSize: 0x10 }
  - { offsetInCU: 0xAA11, offset: 0x77927, size: 0x8, addend: 0x0, symName: __ZNKSt3__16vectorINS0_INS_10shared_ptrI5SkillEENS_9allocatorIS3_EEEENS4_IS6_EEE31__annotate_contiguous_containerB7v160006EPKvSA_SA_SA_, symObjAddr: 0x47F0, symBinAddr: 0x1000267C0, symSize: 0x20 }
  - { offsetInCU: 0xAA63, offset: 0x77979, size: 0x8, addend: 0x0, symName: __ZNKSt3__16vectorINS0_INS_10shared_ptrI5SkillEENS_9allocatorIS3_EEEENS4_IS6_EEE4dataB7v160006Ev, symObjAddr: 0x4810, symBinAddr: 0x1000267E0, symSize: 0x20 }
  - { offsetInCU: 0xAA89, offset: 0x7799F, size: 0x8, addend: 0x0, symName: __ZNKSt3__16vectorINS0_INS_10shared_ptrI5SkillEENS_9allocatorIS3_EEEENS4_IS6_EEE8capacityB7v160006Ev, symObjAddr: 0x4830, symBinAddr: 0x100026800, symSize: 0x40 }
  - { offsetInCU: 0xAAAF, offset: 0x779C5, size: 0x8, addend: 0x0, symName: __ZNKSt3__16vectorINS0_INS_10shared_ptrI5SkillEENS_9allocatorIS3_EEEENS4_IS6_EEE9__end_capB7v160006Ev, symObjAddr: 0x4880, symBinAddr: 0x100026850, symSize: 0x20 }
  - { offsetInCU: 0xAAD5, offset: 0x779EB, size: 0x8, addend: 0x0, symName: __ZNKSt3__117__compressed_pairIPNS_6vectorINS_10shared_ptrI5SkillEENS_9allocatorIS4_EEEENS5_IS7_EEE5firstB7v160006Ev, symObjAddr: 0x48A0, symBinAddr: 0x100026870, symSize: 0x20 }
  - { offsetInCU: 0xAAFB, offset: 0x77A11, size: 0x8, addend: 0x0, symName: __ZNKSt3__122__compressed_pair_elemIPNS_6vectorINS_10shared_ptrI5SkillEENS_9allocatorIS4_EEEELi0ELb0EE5__getB7v160006Ev, symObjAddr: 0x48C0, symBinAddr: 0x100026890, symSize: 0x10 }
  - { offsetInCU: 0xAB3A, offset: 0x77A50, size: 0x8, addend: 0x0, symName: __ZNSt3__16vectorINS0_INS_10shared_ptrI5SkillEENS_9allocatorIS3_EEEENS4_IS6_EEE21_ConstructTransactionC1B7v160006ERS8_m, symObjAddr: 0x48D0, symBinAddr: 0x1000268A0, symSize: 0x30 }
  - { offsetInCU: 0xAB82, offset: 0x77A98, size: 0x8, addend: 0x0, symName: __ZNSt3__116allocator_traitsINS_9allocatorINS_6vectorINS_10shared_ptrI5SkillEENS1_IS5_EEEEEEE9constructB7v160006IS7_JEvEEvRS8_PT_DpOT0_, symObjAddr: 0x4900, symBinAddr: 0x1000268D0, symSize: 0x30 }
  - { offsetInCU: 0xABC4, offset: 0x77ADA, size: 0x8, addend: 0x0, symName: __ZNSt3__16vectorINS0_INS_10shared_ptrI5SkillEENS_9allocatorIS3_EEEENS4_IS6_EEE21_ConstructTransactionD1B7v160006Ev, symObjAddr: 0x4930, symBinAddr: 0x100026900, symSize: 0x20 }
  - { offsetInCU: 0xABEE, offset: 0x77B04, size: 0x8, addend: 0x0, symName: __ZNSt3__16vectorINS0_INS_10shared_ptrI5SkillEENS_9allocatorIS3_EEEENS4_IS6_EEE21_ConstructTransactionC2B7v160006ERS8_m, symObjAddr: 0x4950, symBinAddr: 0x100026920, symSize: 0x40 }
  - { offsetInCU: 0xAC36, offset: 0x77B4C, size: 0x8, addend: 0x0, symName: __ZNSt3__19allocatorINS_6vectorINS_10shared_ptrI5SkillEENS0_IS4_EEEEE9constructB7v160006IS6_JEEEvPT_DpOT0_, symObjAddr: 0x4990, symBinAddr: 0x100026960, symSize: 0x20 }
  - { offsetInCU: 0xAC78, offset: 0x77B8E, size: 0x8, addend: 0x0, symName: __ZNSt3__16vectorINS0_INS_10shared_ptrI5SkillEENS_9allocatorIS3_EEEENS4_IS6_EEE21_ConstructTransactionD2B7v160006Ev, symObjAddr: 0x49B0, symBinAddr: 0x100026980, symSize: 0x20 }
  - { offsetInCU: 0xACA2, offset: 0x77BB8, size: 0x8, addend: 0x0, symName: __ZNSt3__128__exception_guard_exceptionsINS_6vectorINS1_INS_10shared_ptrI5SkillEENS_9allocatorIS4_EEEENS5_IS7_EEE16__destroy_vectorEED2B7v160006Ev, symObjAddr: 0x49D0, symBinAddr: 0x1000269A0, symSize: 0x30 }
  - { offsetInCU: 0xACCC, offset: 0x77BE2, size: 0x8, addend: 0x0, symName: __ZNSt3__16vectorINS0_INS_10shared_ptrI5SkillEENS_9allocatorIS3_EEEENS4_IS6_EEE16__destroy_vectorclB7v160006Ev, symObjAddr: 0x4A00, symBinAddr: 0x1000269D0, symSize: 0x90 }
  - { offsetInCU: 0xACF2, offset: 0x77C08, size: 0x8, addend: 0x0, symName: __ZNKSt3__16vectorINS0_INS_10shared_ptrI5SkillEENS_9allocatorIS3_EEEENS4_IS6_EEE17__annotate_deleteB7v160006Ev, symObjAddr: 0x4A90, symBinAddr: 0x100026A60, symSize: 0xB0 }
  - { offsetInCU: 0xAD18, offset: 0x77C2E, size: 0x8, addend: 0x0, symName: __ZNSt3__16vectorINS0_INS_10shared_ptrI5SkillEENS_9allocatorIS3_EEEENS4_IS6_EEE7__clearB7v160006Ev, symObjAddr: 0x4B50, symBinAddr: 0x100026B20, symSize: 0x20 }
  - { offsetInCU: 0xAD3E, offset: 0x77C54, size: 0x8, addend: 0x0, symName: __ZNSt3__116allocator_traitsINS_9allocatorINS_6vectorINS_10shared_ptrI5SkillEENS1_IS5_EEEEEEE10deallocateB7v160006ERS8_PS7_m, symObjAddr: 0x4B70, symBinAddr: 0x100026B40, symSize: 0x30 }
  - { offsetInCU: 0xAD80, offset: 0x77C96, size: 0x8, addend: 0x0, symName: __ZNKSt3__16vectorINS0_INS_10shared_ptrI5SkillEENS_9allocatorIS3_EEEENS4_IS6_EEE4sizeB7v160006Ev, symObjAddr: 0x4BA0, symBinAddr: 0x100026B70, symSize: 0x30 }
  - { offsetInCU: 0xADA6, offset: 0x77CBC, size: 0x8, addend: 0x0, symName: __ZNSt3__16vectorINS0_INS_10shared_ptrI5SkillEENS_9allocatorIS3_EEEENS4_IS6_EEE22__base_destruct_at_endB7v160006EPS6_, symObjAddr: 0x4BD0, symBinAddr: 0x100026BA0, symSize: 0x90 }
  - { offsetInCU: 0xADEA, offset: 0x77D00, size: 0x8, addend: 0x0, symName: __ZNSt3__116allocator_traitsINS_9allocatorINS_6vectorINS_10shared_ptrI5SkillEENS1_IS5_EEEEEEE7destroyB7v160006IS7_vEEvRS8_PT_, symObjAddr: 0x4C60, symBinAddr: 0x100026C30, symSize: 0x30 }
  - { offsetInCU: 0xAE27, offset: 0x77D3D, size: 0x8, addend: 0x0, symName: __ZNSt3__19allocatorINS_6vectorINS_10shared_ptrI5SkillEENS0_IS4_EEEEE7destroyB7v160006EPS6_, symObjAddr: 0x4C90, symBinAddr: 0x100026C60, symSize: 0x20 }
  - { offsetInCU: 0xAE5B, offset: 0x77D71, size: 0x8, addend: 0x0, symName: __ZNSt3__19allocatorINS_6vectorINS_10shared_ptrI5SkillEENS0_IS4_EEEEE10deallocateB7v160006EPS6_m, symObjAddr: 0x4CB0, symBinAddr: 0x100026C80, symSize: 0x80 }
  - { offsetInCU: 0xAE9D, offset: 0x77DB3, size: 0x8, addend: 0x0, symName: __ZNSt3__16vectorINS0_INS_10shared_ptrI5SkillEENS_9allocatorIS3_EEEENS4_IS6_EEED2B7v160006Ev, symObjAddr: 0x4D30, symBinAddr: 0x100026D00, symSize: 0x30 }
  - { offsetInCU: 0xAF84, offset: 0x77E9A, size: 0x8, addend: 0x0, symName: __ZNSt3__19allocatorI5SkillEC1B7v160006Ev, symObjAddr: 0x8400, symBinAddr: 0x100026DF0, symSize: 0x20 }
  - { offsetInCU: 0xAFEA, offset: 0x77F00, size: 0x8, addend: 0x0, symName: __ZNSt3__118__allocation_guardINS_9allocatorINS_20__shared_ptr_emplaceI5SkillNS1_IS3_EEEEEEEC1B7v160006IS4_EET_m, symObjAddr: 0x8420, symBinAddr: 0x100026E10, symSize: 0x30 }
  - { offsetInCU: 0xB039, offset: 0x77F4F, size: 0x8, addend: 0x0, symName: __ZNKSt3__118__allocation_guardINS_9allocatorINS_20__shared_ptr_emplaceI5SkillNS1_IS3_EEEEEEE5__getB7v160006Ev, symObjAddr: 0x8450, symBinAddr: 0x100026E40, symSize: 0x20 }
  - { offsetInCU: 0xB05F, offset: 0x77F75, size: 0x8, addend: 0x0, symName: __ZNSt3__120__shared_ptr_emplaceI5SkillNS_9allocatorIS1_EEEC1B7v160006IJRNS_12basic_stringIcNS_11char_traitsIcEENS2_IcEEEESB_RNS_6vectorIiNS2_IiEEEEEEES3_DpOT_, symObjAddr: 0x8470, symBinAddr: 0x100026E60, symSize: 0x40 }
  - { offsetInCU: 0xB0DA, offset: 0x77FF0, size: 0x8, addend: 0x0, symName: __ZNSt3__118__allocation_guardINS_9allocatorINS_20__shared_ptr_emplaceI5SkillNS1_IS3_EEEEEEE13__release_ptrB7v160006Ev, symObjAddr: 0x84B0, symBinAddr: 0x100026EA0, symSize: 0x30 }
  - { offsetInCU: 0xB10E, offset: 0x78024, size: 0x8, addend: 0x0, symName: __ZNSt3__110shared_ptrI5SkillE27__create_with_control_blockB7v160006IS1_NS_20__shared_ptr_emplaceIS1_NS_9allocatorIS1_EEEEEES2_PT_PT0_, symObjAddr: 0x84E0, symBinAddr: 0x100026ED0, symSize: 0x90 }
  - { offsetInCU: 0xB163, offset: 0x78079, size: 0x8, addend: 0x0, symName: __ZNSt3__120__shared_ptr_emplaceI5SkillNS_9allocatorIS1_EEE10__get_elemB7v160006Ev, symObjAddr: 0x8570, symBinAddr: 0x100026F60, symSize: 0x20 }
  - { offsetInCU: 0xB189, offset: 0x7809F, size: 0x8, addend: 0x0, symName: __ZNSt3__118__allocation_guardINS_9allocatorINS_20__shared_ptr_emplaceI5SkillNS1_IS3_EEEEEEED1B7v160006Ev, symObjAddr: 0x8590, symBinAddr: 0x100026F80, symSize: 0x20 }
  - { offsetInCU: 0xB1B3, offset: 0x780C9, size: 0x8, addend: 0x0, symName: __ZNSt3__118__allocation_guardINS_9allocatorINS_20__shared_ptr_emplaceI5SkillNS1_IS3_EEEEEEEC2B7v160006IS4_EET_m, symObjAddr: 0x85B0, symBinAddr: 0x100026FA0, symSize: 0x50 }
  - { offsetInCU: 0xB202, offset: 0x78118, size: 0x8, addend: 0x0, symName: __ZNSt3__19allocatorINS_20__shared_ptr_emplaceI5SkillNS0_IS2_EEEEEC1B7v160006IS2_EERKNS0_IT_EE, symObjAddr: 0x8600, symBinAddr: 0x100026FF0, symSize: 0x30 }
  - { offsetInCU: 0xB240, offset: 0x78156, size: 0x8, addend: 0x0, symName: __ZNSt3__116allocator_traitsINS_9allocatorINS_20__shared_ptr_emplaceI5SkillNS1_IS3_EEEEEEE8allocateB7v160006ERS6_m, symObjAddr: 0x8630, symBinAddr: 0x100027020, symSize: 0x30 }
  - { offsetInCU: 0xB273, offset: 0x78189, size: 0x8, addend: 0x0, symName: __ZNSt3__19allocatorINS_20__shared_ptr_emplaceI5SkillNS0_IS2_EEEEEC2B7v160006IS2_EERKNS0_IT_EE, symObjAddr: 0x8660, symBinAddr: 0x100027050, symSize: 0x20 }
  - { offsetInCU: 0xB2B1, offset: 0x781C7, size: 0x8, addend: 0x0, symName: __ZNSt3__116__non_trivial_ifILb1ENS_9allocatorINS_20__shared_ptr_emplaceI5SkillNS1_IS3_EEEEEEEC2B7v160006Ev, symObjAddr: 0x8680, symBinAddr: 0x100027070, symSize: 0x10 }
  - { offsetInCU: 0xB2DB, offset: 0x781F1, size: 0x8, addend: 0x0, symName: __ZNSt3__19allocatorINS_20__shared_ptr_emplaceI5SkillNS0_IS2_EEEEE8allocateB7v160006Em, symObjAddr: 0x8690, symBinAddr: 0x100027080, symSize: 0x80 }
  - { offsetInCU: 0xB319, offset: 0x7822F, size: 0x8, addend: 0x0, symName: __ZNSt3__116allocator_traitsINS_9allocatorINS_20__shared_ptr_emplaceI5SkillNS1_IS3_EEEEEEE8max_sizeB7v160006IS6_vEEmRKS6_, symObjAddr: 0x8710, symBinAddr: 0x100027100, symSize: 0x20 }
  - { offsetInCU: 0xB347, offset: 0x7825D, size: 0x8, addend: 0x0, symName: __ZNKSt3__19allocatorINS_20__shared_ptr_emplaceI5SkillNS0_IS2_EEEEE8max_sizeB7v160006Ev, symObjAddr: 0x8730, symBinAddr: 0x100027120, symSize: 0x20 }
  - { offsetInCU: 0xB36D, offset: 0x78283, size: 0x8, addend: 0x0, symName: __ZNSt3__120__shared_ptr_emplaceI5SkillNS_9allocatorIS1_EEEC2B7v160006IJRNS_12basic_stringIcNS_11char_traitsIcEENS2_IcEEEESB_RNS_6vectorIiNS2_IiEEEEEEES3_DpOT_, symObjAddr: 0x8750, symBinAddr: 0x100027140, symSize: 0x1C0 }
  - { offsetInCU: 0xB3E8, offset: 0x782FE, size: 0x8, addend: 0x0, symName: __ZNSt3__120__shared_ptr_emplaceI5SkillNS_9allocatorIS1_EEE8_StorageC1B7v160006EOS3_, symObjAddr: 0x8960, symBinAddr: 0x100027300, symSize: 0x30 }
  - { offsetInCU: 0xB421, offset: 0x78337, size: 0x8, addend: 0x0, symName: __ZNSt3__120__shared_ptr_emplaceI5SkillNS_9allocatorIS1_EEE8_StorageD1B7v160006Ev, symObjAddr: 0x89C0, symBinAddr: 0x100027330, symSize: 0x20 }
  - { offsetInCU: 0xB44B, offset: 0x78361, size: 0x8, addend: 0x0, symName: __ZNSt3__120__shared_ptr_emplaceI5SkillNS_9allocatorIS1_EEED1Ev, symObjAddr: 0x89E0, symBinAddr: 0x100027350, symSize: 0x20 }
  - { offsetInCU: 0xB478, offset: 0x7838E, size: 0x8, addend: 0x0, symName: __ZNSt3__120__shared_ptr_emplaceI5SkillNS_9allocatorIS1_EEED0Ev, symObjAddr: 0x8A00, symBinAddr: 0x100027370, symSize: 0x50 }
  - { offsetInCU: 0xB4A5, offset: 0x783BB, size: 0x8, addend: 0x0, symName: __ZNSt3__120__shared_ptr_emplaceI5SkillNS_9allocatorIS1_EEE16__on_zero_sharedEv, symObjAddr: 0x8A50, symBinAddr: 0x1000273C0, symSize: 0x40 }
  - { offsetInCU: 0xB4CB, offset: 0x783E1, size: 0x8, addend: 0x0, symName: __ZNSt3__120__shared_ptr_emplaceI5SkillNS_9allocatorIS1_EEE21__on_zero_shared_weakEv, symObjAddr: 0x8A90, symBinAddr: 0x100027400, symSize: 0x70 }
  - { offsetInCU: 0xB50C, offset: 0x78422, size: 0x8, addend: 0x0, symName: __ZNSt3__120__shared_ptr_emplaceI5SkillNS_9allocatorIS1_EEE8_StorageC2B7v160006EOS3_, symObjAddr: 0x8B30, symBinAddr: 0x100027470, symSize: 0x20 }
  - { offsetInCU: 0xB545, offset: 0x7845B, size: 0x8, addend: 0x0, symName: __ZNSt3__120__shared_ptr_emplaceI5SkillNS_9allocatorIS1_EEE8_Storage11__get_allocEv, symObjAddr: 0x8B50, symBinAddr: 0x100027490, symSize: 0x40 }
  - { offsetInCU: 0xB598, offset: 0x784AE, size: 0x8, addend: 0x0, symName: __ZNSt3__117__compressed_pairINS_9allocatorI5SkillEES2_E16__get_first_baseB7v160006EPS4_, symObjAddr: 0x8B90, symBinAddr: 0x1000274D0, symSize: 0x10 }
  - { offsetInCU: 0xB5BB, offset: 0x784D1, size: 0x8, addend: 0x0, symName: __ZNSt3__120__shared_ptr_emplaceI5SkillNS_9allocatorIS1_EEE8_StorageD2B7v160006Ev, symObjAddr: 0x9370, symBinAddr: 0x1000274E0, symSize: 0x20 }
  - { offsetInCU: 0xB5E5, offset: 0x784FB, size: 0x8, addend: 0x0, symName: __ZNSt3__120__shared_ptr_emplaceI5SkillNS_9allocatorIS1_EEED2Ev, symObjAddr: 0x9390, symBinAddr: 0x100027500, symSize: 0x70 }
  - { offsetInCU: 0xB612, offset: 0x78528, size: 0x8, addend: 0x0, symName: __ZN5SkillD1Ev, symObjAddr: 0x9400, symBinAddr: 0x100027570, symSize: 0x20 }
  - { offsetInCU: 0xB63E, offset: 0x78554, size: 0x8, addend: 0x0, symName: __ZN5SkillD2Ev, symObjAddr: 0x9420, symBinAddr: 0x100027590, symSize: 0xE0 }
  - { offsetInCU: 0xB66A, offset: 0x78580, size: 0x8, addend: 0x0, symName: __ZNSt3__120__shared_ptr_emplaceI5SkillNS_9allocatorIS1_EEE11__get_allocB7v160006Ev, symObjAddr: 0x9500, symBinAddr: 0x100027670, symSize: 0x20 }
  - { offsetInCU: 0xB690, offset: 0x785A6, size: 0x8, addend: 0x0, symName: __ZNSt3__116allocator_traitsINS_9allocatorINS_20__shared_ptr_emplaceI5SkillNS1_IS3_EEEEEEE10deallocateB7v160006ERS6_PS5_m, symObjAddr: 0x9520, symBinAddr: 0x100027690, symSize: 0x30 }
  - { offsetInCU: 0xB6D2, offset: 0x785E8, size: 0x8, addend: 0x0, symName: __ZNSt3__114pointer_traitsIPNS_20__shared_ptr_emplaceI5SkillNS_9allocatorIS2_EEEEE10pointer_toB7v160006ERS5_, symObjAddr: 0x9550, symBinAddr: 0x1000276C0, symSize: 0x10 }
  - { offsetInCU: 0xB6F5, offset: 0x7860B, size: 0x8, addend: 0x0, symName: __ZNSt3__19allocatorINS_20__shared_ptr_emplaceI5SkillNS0_IS2_EEEEE10deallocateB7v160006EPS4_m, symObjAddr: 0x9560, symBinAddr: 0x1000276D0, symSize: 0x70 }
  - { offsetInCU: 0xB737, offset: 0x7864D, size: 0x8, addend: 0x0, symName: __ZNSt3__110shared_ptrI5SkillEC1B7v160006Ev, symObjAddr: 0x95D0, symBinAddr: 0x100027740, symSize: 0x20 }
  - { offsetInCU: 0xB761, offset: 0x78677, size: 0x8, addend: 0x0, symName: __ZNSt3__110shared_ptrI5SkillE18__enable_weak_thisB7v160006Ez, symObjAddr: 0x95F0, symBinAddr: 0x100027760, symSize: 0x10 }
  - { offsetInCU: 0xB788, offset: 0x7869E, size: 0x8, addend: 0x0, symName: __ZNSt3__110shared_ptrI5SkillEC2B7v160006Ev, symObjAddr: 0x9600, symBinAddr: 0x100027770, symSize: 0x20 }
  - { offsetInCU: 0xB7B2, offset: 0x786C8, size: 0x8, addend: 0x0, symName: __ZNSt3__120__shared_ptr_emplaceI5SkillNS_9allocatorIS1_EEE8_Storage10__get_elemEv, symObjAddr: 0x9620, symBinAddr: 0x100027790, symSize: 0x40 }
  - { offsetInCU: 0xB805, offset: 0x7871B, size: 0x8, addend: 0x0, symName: __ZNSt3__117__compressed_pairINS_9allocatorI5SkillEES2_E17__get_second_baseB7v160006EPS4_, symObjAddr: 0x9660, symBinAddr: 0x1000277D0, symSize: 0x10 }
  - { offsetInCU: 0xB828, offset: 0x7873E, size: 0x8, addend: 0x0, symName: __ZNSt3__118__allocation_guardINS_9allocatorINS_20__shared_ptr_emplaceI5SkillNS1_IS3_EEEEEEED2B7v160006Ev, symObjAddr: 0x9670, symBinAddr: 0x1000277E0, symSize: 0x40 }
  - { offsetInCU: 0xB852, offset: 0x78768, size: 0x8, addend: 0x0, symName: __ZNSt3__19allocatorI5SkillEC2B7v160006Ev, symObjAddr: 0x96B0, symBinAddr: 0x100027820, symSize: 0x20 }
  - { offsetInCU: 0xB87C, offset: 0x78792, size: 0x8, addend: 0x0, symName: __ZNSt3__116__non_trivial_ifILb1ENS_9allocatorI5SkillEEEC2B7v160006Ev, symObjAddr: 0x96D0, symBinAddr: 0x100027840, symSize: 0x10 }
...
